
mg.A.x:     file format elf64-littleaarch64


Disassembly of section .init:

0000000000001550 <_init>:
    1550:	d503201f 	nop
    1554:	a9bf7bfd 	stp	x29, x30, [sp, #-16]!
    1558:	910003fd 	mov	x29, sp
    155c:	940000f6 	bl	1934 <call_weak_fn>
    1560:	a8c17bfd 	ldp	x29, x30, [sp], #16
    1564:	d65f03c0 	ret

Disassembly of section .plt:

0000000000001570 <.plt>:
    1570:	a9bf7bf0 	stp	x16, x30, [sp, #-16]!
    1574:	f00000d0 	adrp	x16, 1c000 <__FRAME_END__+0xfbe8>
    1578:	f946c211 	ldr	x17, [x16, #3456]
    157c:	91360210 	add	x16, x16, #0xd80
    1580:	d61f0220 	br	x17
    1584:	d503201f 	nop
    1588:	d503201f 	nop
    158c:	d503201f 	nop

0000000000001590 <GOMP_loop_ordered_static_next@plt>:
    1590:	f00000d0 	adrp	x16, 1c000 <__FRAME_END__+0xfbe8>
    1594:	f946c611 	ldr	x17, [x16, #3464]
    1598:	91362210 	add	x16, x16, #0xd88
    159c:	d61f0220 	br	x17

00000000000015a0 <_gfortran_transfer_real_write@plt>:
    15a0:	f00000d0 	adrp	x16, 1c000 <__FRAME_END__+0xfbe8>
    15a4:	f946ca11 	ldr	x17, [x16, #3472]
    15a8:	91364210 	add	x16, x16, #0xd90
    15ac:	d61f0220 	br	x17

00000000000015b0 <_gfortran_stop_string@plt>:
    15b0:	f00000d0 	adrp	x16, 1c000 <__FRAME_END__+0xfbe8>
    15b4:	f946ce11 	ldr	x17, [x16, #3480]
    15b8:	91366210 	add	x16, x16, #0xd98
    15bc:	d61f0220 	br	x17

00000000000015c0 <omp_get_num_threads@plt>:
    15c0:	f00000d0 	adrp	x16, 1c000 <__FRAME_END__+0xfbe8>
    15c4:	f946d211 	ldr	x17, [x16, #3488]
    15c8:	91368210 	add	x16, x16, #0xda0
    15cc:	d61f0220 	br	x17

00000000000015d0 <_gfortran_st_read_done@plt>:
    15d0:	f00000d0 	adrp	x16, 1c000 <__FRAME_END__+0xfbe8>
    15d4:	f946d611 	ldr	x17, [x16, #3496]
    15d8:	9136a210 	add	x16, x16, #0xda8
    15dc:	d61f0220 	br	x17

00000000000015e0 <__gmon_start__@plt>:
    15e0:	f00000d0 	adrp	x16, 1c000 <__FRAME_END__+0xfbe8>
    15e4:	f946da11 	ldr	x17, [x16, #3504]
    15e8:	9136c210 	add	x16, x16, #0xdb0
    15ec:	d61f0220 	br	x17

00000000000015f0 <getpid@plt>:
    15f0:	f00000d0 	adrp	x16, 1c000 <__FRAME_END__+0xfbe8>
    15f4:	f946de11 	ldr	x17, [x16, #3512]
    15f8:	9136e210 	add	x16, x16, #0xdb8
    15fc:	d61f0220 	br	x17

0000000000001600 <_gfortran_ieee_procedure_entry@plt>:
    1600:	f00000d0 	adrp	x16, 1c000 <__FRAME_END__+0xfbe8>
    1604:	f946e211 	ldr	x17, [x16, #3520]
    1608:	91370210 	add	x16, x16, #0xdc0
    160c:	d61f0220 	br	x17

0000000000001610 <_gfortran_st_close@plt>:
    1610:	f00000d0 	adrp	x16, 1c000 <__FRAME_END__+0xfbe8>
    1614:	f946e611 	ldr	x17, [x16, #3528]
    1618:	91372210 	add	x16, x16, #0xdc8
    161c:	d61f0220 	br	x17

0000000000001620 <_gfortran_ieee_procedure_exit@plt>:
    1620:	f00000d0 	adrp	x16, 1c000 <__FRAME_END__+0xfbe8>
    1624:	f946ea11 	ldr	x17, [x16, #3536]
    1628:	91374210 	add	x16, x16, #0xdd0
    162c:	d61f0220 	br	x17

0000000000001630 <GOMP_loop_end@plt>:
    1630:	f00000d0 	adrp	x16, 1c000 <__FRAME_END__+0xfbe8>
    1634:	f946ee11 	ldr	x17, [x16, #3544]
    1638:	91376210 	add	x16, x16, #0xdd8
    163c:	d61f0220 	br	x17

0000000000001640 <_gfortran_transfer_integer_write@plt>:
    1640:	f00000d0 	adrp	x16, 1c000 <__FRAME_END__+0xfbe8>
    1644:	f946f211 	ldr	x17, [x16, #3552]
    1648:	91378210 	add	x16, x16, #0xde0
    164c:	d61f0220 	br	x17

0000000000001650 <__cxa_finalize@plt>:
    1650:	f00000d0 	adrp	x16, 1c000 <__FRAME_END__+0xfbe8>
    1654:	f946f611 	ldr	x17, [x16, #3560]
    1658:	9137a210 	add	x16, x16, #0xde8
    165c:	d61f0220 	br	x17

0000000000001660 <omp_get_thread_num@plt>:
    1660:	f00000d0 	adrp	x16, 1c000 <__FRAME_END__+0xfbe8>
    1664:	f946fa11 	ldr	x17, [x16, #3568]
    1668:	9137c210 	add	x16, x16, #0xdf0
    166c:	d61f0220 	br	x17

0000000000001670 <_gfortran_transfer_integer@plt>:
    1670:	f00000d0 	adrp	x16, 1c000 <__FRAME_END__+0xfbe8>
    1674:	f946fe11 	ldr	x17, [x16, #3576]
    1678:	9137e210 	add	x16, x16, #0xdf8
    167c:	d61f0220 	br	x17

0000000000001680 <_gfortran_st_open@plt>:
    1680:	f00000d0 	adrp	x16, 1c000 <__FRAME_END__+0xfbe8>
    1684:	f9470211 	ldr	x17, [x16, #3584]
    1688:	91380210 	add	x16, x16, #0xe00
    168c:	d61f0220 	br	x17

0000000000001690 <abort@plt>:
    1690:	f00000d0 	adrp	x16, 1c000 <__FRAME_END__+0xfbe8>
    1694:	f9470611 	ldr	x17, [x16, #3592]
    1698:	91382210 	add	x16, x16, #0xe08
    169c:	d61f0220 	br	x17

00000000000016a0 <_gfortran_transfer_character_write@plt>:
    16a0:	f00000d0 	adrp	x16, 1c000 <__FRAME_END__+0xfbe8>
    16a4:	f9470a11 	ldr	x17, [x16, #3600]
    16a8:	91384210 	add	x16, x16, #0xe10
    16ac:	d61f0220 	br	x17

00000000000016b0 <GOMP_ordered_end@plt>:
    16b0:	f00000d0 	adrp	x16, 1c000 <__FRAME_END__+0xfbe8>
    16b4:	f9470e11 	ldr	x17, [x16, #3608]
    16b8:	91386210 	add	x16, x16, #0xe18
    16bc:	d61f0220 	br	x17

00000000000016c0 <GOMP_atomic_end@plt>:
    16c0:	f00000d0 	adrp	x16, 1c000 <__FRAME_END__+0xfbe8>
    16c4:	f9471211 	ldr	x17, [x16, #3616]
    16c8:	91388210 	add	x16, x16, #0xe20
    16cc:	d61f0220 	br	x17

00000000000016d0 <_gfortran_get_environment_variable_i4@plt>:
    16d0:	f00000d0 	adrp	x16, 1c000 <__FRAME_END__+0xfbe8>
    16d4:	f9471611 	ldr	x17, [x16, #3624]
    16d8:	9138a210 	add	x16, x16, #0xe28
    16dc:	d61f0220 	br	x17

00000000000016e0 <omp_get_num_threads_@plt>:
    16e0:	f00000d0 	adrp	x16, 1c000 <__FRAME_END__+0xfbe8>
    16e4:	f9471a11 	ldr	x17, [x16, #3632]
    16e8:	9138c210 	add	x16, x16, #0xe30
    16ec:	d61f0220 	br	x17

00000000000016f0 <GOMP_loop_ordered_static_start@plt>:
    16f0:	f00000d0 	adrp	x16, 1c000 <__FRAME_END__+0xfbe8>
    16f4:	f9471e11 	ldr	x17, [x16, #3640]
    16f8:	9138e210 	add	x16, x16, #0xe38
    16fc:	d61f0220 	br	x17

0000000000001700 <GOMP_barrier@plt>:
    1700:	f00000d0 	adrp	x16, 1c000 <__FRAME_END__+0xfbe8>
    1704:	f9472211 	ldr	x17, [x16, #3648]
    1708:	91390210 	add	x16, x16, #0xe40
    170c:	d61f0220 	br	x17

0000000000001710 <GOMP_ordered_start@plt>:
    1710:	f00000d0 	adrp	x16, 1c000 <__FRAME_END__+0xfbe8>
    1714:	f9472611 	ldr	x17, [x16, #3656]
    1718:	91392210 	add	x16, x16, #0xe48
    171c:	d61f0220 	br	x17

0000000000001720 <_gfortran_compare_string@plt>:
    1720:	f00000d0 	adrp	x16, 1c000 <__FRAME_END__+0xfbe8>
    1724:	f9472a11 	ldr	x17, [x16, #3664]
    1728:	91394210 	add	x16, x16, #0xe50
    172c:	d61f0220 	br	x17

0000000000001730 <GOMP_atomic_start@plt>:
    1730:	f00000d0 	adrp	x16, 1c000 <__FRAME_END__+0xfbe8>
    1734:	f9472e11 	ldr	x17, [x16, #3672]
    1738:	91396210 	add	x16, x16, #0xe58
    173c:	d61f0220 	br	x17

0000000000001740 <system@plt>:
    1740:	f00000d0 	adrp	x16, 1c000 <__FRAME_END__+0xfbe8>
    1744:	f9473211 	ldr	x17, [x16, #3680]
    1748:	91398210 	add	x16, x16, #0xe60
    174c:	d61f0220 	br	x17

0000000000001750 <_gfortran_st_read@plt>:
    1750:	f00000d0 	adrp	x16, 1c000 <__FRAME_END__+0xfbe8>
    1754:	f9473611 	ldr	x17, [x16, #3688]
    1758:	9139a210 	add	x16, x16, #0xe68
    175c:	d61f0220 	br	x17

0000000000001760 <__stack_chk_fail@plt>:
    1760:	f00000d0 	adrp	x16, 1c000 <__FRAME_END__+0xfbe8>
    1764:	f9473a11 	ldr	x17, [x16, #3696]
    1768:	9139c210 	add	x16, x16, #0xe70
    176c:	d61f0220 	br	x17

0000000000001770 <__powidf2@plt>:
    1770:	f00000d0 	adrp	x16, 1c000 <__FRAME_END__+0xfbe8>
    1774:	f9473e11 	ldr	x17, [x16, #3704]
    1778:	9139e210 	add	x16, x16, #0xe78
    177c:	d61f0220 	br	x17

0000000000001780 <omp_get_wtime_@plt>:
    1780:	f00000d0 	adrp	x16, 1c000 <__FRAME_END__+0xfbe8>
    1784:	f9474211 	ldr	x17, [x16, #3712]
    1788:	913a0210 	add	x16, x16, #0xe80
    178c:	d61f0220 	br	x17

0000000000001790 <GOMP_parallel@plt>:
    1790:	f00000d0 	adrp	x16, 1c000 <__FRAME_END__+0xfbe8>
    1794:	f9474611 	ldr	x17, [x16, #3720]
    1798:	913a2210 	add	x16, x16, #0xe88
    179c:	d61f0220 	br	x17

00000000000017a0 <_gfortran_st_write_done@plt>:
    17a0:	f00000d0 	adrp	x16, 1c000 <__FRAME_END__+0xfbe8>
    17a4:	f9474a11 	ldr	x17, [x16, #3728]
    17a8:	913a4210 	add	x16, x16, #0xe90
    17ac:	d61f0220 	br	x17

00000000000017b0 <_gfortran_transfer_array_write@plt>:
    17b0:	f00000d0 	adrp	x16, 1c000 <__FRAME_END__+0xfbe8>
    17b4:	f9474e11 	ldr	x17, [x16, #3736]
    17b8:	913a6210 	add	x16, x16, #0xe98
    17bc:	d61f0220 	br	x17

00000000000017c0 <malloc@plt>:
    17c0:	f00000d0 	adrp	x16, 1c000 <__FRAME_END__+0xfbe8>
    17c4:	f9475211 	ldr	x17, [x16, #3744]
    17c8:	913a8210 	add	x16, x16, #0xea0
    17cc:	d61f0220 	br	x17

00000000000017d0 <omp_get_max_threads_@plt>:
    17d0:	f00000d0 	adrp	x16, 1c000 <__FRAME_END__+0xfbe8>
    17d4:	f9475611 	ldr	x17, [x16, #3752]
    17d8:	913aa210 	add	x16, x16, #0xea8
    17dc:	d61f0220 	br	x17

00000000000017e0 <omp_get_thread_num_@plt>:
    17e0:	f00000d0 	adrp	x16, 1c000 <__FRAME_END__+0xfbe8>
    17e4:	f9475a11 	ldr	x17, [x16, #3760]
    17e8:	913ac210 	add	x16, x16, #0xeb0
    17ec:	d61f0220 	br	x17

00000000000017f0 <_gfortran_set_options@plt>:
    17f0:	f00000d0 	adrp	x16, 1c000 <__FRAME_END__+0xfbe8>
    17f4:	f9475e11 	ldr	x17, [x16, #3768]
    17f8:	913ae210 	add	x16, x16, #0xeb8
    17fc:	d61f0220 	br	x17

0000000000001800 <gettimeofday@plt>:
    1800:	f00000d0 	adrp	x16, 1c000 <__FRAME_END__+0xfbe8>
    1804:	f9476211 	ldr	x17, [x16, #3776]
    1808:	913b0210 	add	x16, x16, #0xec0
    180c:	d61f0220 	br	x17

0000000000001810 <_gfortran_set_args@plt>:
    1810:	f00000d0 	adrp	x16, 1c000 <__FRAME_END__+0xfbe8>
    1814:	f9476611 	ldr	x17, [x16, #3784]
    1818:	913b2210 	add	x16, x16, #0xec8
    181c:	d61f0220 	br	x17

0000000000001820 <puts@plt>:
    1820:	f00000d0 	adrp	x16, 1c000 <__FRAME_END__+0xfbe8>
    1824:	f9476a11 	ldr	x17, [x16, #3792]
    1828:	913b4210 	add	x16, x16, #0xed0
    182c:	d61f0220 	br	x17

0000000000001830 <sprintf@plt>:
    1830:	f00000d0 	adrp	x16, 1c000 <__FRAME_END__+0xfbe8>
    1834:	f9476e11 	ldr	x17, [x16, #3800]
    1838:	913b6210 	add	x16, x16, #0xed8
    183c:	d61f0220 	br	x17

0000000000001840 <printf@plt>:
    1840:	f00000d0 	adrp	x16, 1c000 <__FRAME_END__+0xfbe8>
    1844:	f9477211 	ldr	x17, [x16, #3808]
    1848:	913b8210 	add	x16, x16, #0xee0
    184c:	d61f0220 	br	x17

0000000000001850 <_gfortran_st_write@plt>:
    1850:	f00000d0 	adrp	x16, 1c000 <__FRAME_END__+0xfbe8>
    1854:	f9477611 	ldr	x17, [x16, #3816]
    1858:	913ba210 	add	x16, x16, #0xee8
    185c:	d61f0220 	br	x17

0000000000001860 <__libc_start_main@plt>:
    1860:	f00000d0 	adrp	x16, 1c000 <__FRAME_END__+0xfbe8>
    1864:	f9477a11 	ldr	x17, [x16, #3824]
    1868:	913bc210 	add	x16, x16, #0xef0
    186c:	d61f0220 	br	x17

0000000000001870 <_gfortran_transfer_array@plt>:
    1870:	f00000d0 	adrp	x16, 1c000 <__FRAME_END__+0xfbe8>
    1874:	f9477e11 	ldr	x17, [x16, #3832]
    1878:	913be210 	add	x16, x16, #0xef8
    187c:	d61f0220 	br	x17

0000000000001880 <memset@plt>:
    1880:	f00000d0 	adrp	x16, 1c000 <__FRAME_END__+0xfbe8>
    1884:	f9478211 	ldr	x17, [x16, #3840]
    1888:	913c0210 	add	x16, x16, #0xf00
    188c:	d61f0220 	br	x17

Disassembly of section .text:

00000000000018c0 <main>:
    18c0:	a9bf7bfd 	stp	x29, x30, [sp, #-16]!
    18c4:	910003fd 	mov	x29, sp
    18c8:	97ffffd2 	bl	1810 <_gfortran_set_args@plt>
    18cc:	d0000041 	adrp	x1, b000 <_IO_stdin_used+0x620>
    18d0:	91006021 	add	x1, x1, #0x18
    18d4:	9100e021 	add	x1, x1, #0x38
    18d8:	528000e0 	mov	w0, #0x7                   	// #7
    18dc:	97ffffc5 	bl	17f0 <_gfortran_set_options@plt>
    18e0:	940019e5 	bl	8074 <MAIN__>
    18e4:	52800000 	mov	w0, #0x0                   	// #0
    18e8:	a8c17bfd 	ldp	x29, x30, [sp], #16
    18ec:	d65f03c0 	ret
    18f0:	d503201f 	nop
    18f4:	d503201f 	nop
    18f8:	d503201f 	nop
    18fc:	d503201f 	nop

0000000000001900 <_start>:
    1900:	d503201f 	nop
    1904:	d280001d 	mov	x29, #0x0                   	// #0
    1908:	d280001e 	mov	x30, #0x0                   	// #0
    190c:	aa0003e5 	mov	x5, x0
    1910:	f94003e1 	ldr	x1, [sp]
    1914:	910023e2 	add	x2, sp, #0x8
    1918:	910003e6 	mov	x6, sp
    191c:	f00000c0 	adrp	x0, 1c000 <__FRAME_END__+0xfbe8>
    1920:	f947fc00 	ldr	x0, [x0, #4088]
    1924:	d2800003 	mov	x3, #0x0                   	// #0
    1928:	d2800004 	mov	x4, #0x0                   	// #0
    192c:	97ffffcd 	bl	1860 <__libc_start_main@plt>
    1930:	97ffff58 	bl	1690 <abort@plt>

0000000000001934 <call_weak_fn>:
    1934:	f00000c0 	adrp	x0, 1c000 <__FRAME_END__+0xfbe8>
    1938:	f947a800 	ldr	x0, [x0, #3920]
    193c:	b4000040 	cbz	x0, 1944 <call_weak_fn+0x10>
    1940:	17ffff28 	b	15e0 <__gmon_start__@plt>
    1944:	d65f03c0 	ret
    1948:	d503201f 	nop
    194c:	d503201f 	nop

0000000000001950 <deregister_tm_clones>:
    1950:	900000e0 	adrp	x0, 1d000 <__data_start>
    1954:	91006000 	add	x0, x0, #0x18
    1958:	900000e1 	adrp	x1, 1d000 <__data_start>
    195c:	91006021 	add	x1, x1, #0x18
    1960:	eb00003f 	cmp	x1, x0
    1964:	540000c0 	b.eq	197c <deregister_tm_clones+0x2c>  // b.none
    1968:	f00000c1 	adrp	x1, 1c000 <__FRAME_END__+0xfbe8>
    196c:	f947b821 	ldr	x1, [x1, #3952]
    1970:	b4000061 	cbz	x1, 197c <deregister_tm_clones+0x2c>
    1974:	aa0103f0 	mov	x16, x1
    1978:	d61f0200 	br	x16
    197c:	d65f03c0 	ret

0000000000001980 <register_tm_clones>:
    1980:	900000e0 	adrp	x0, 1d000 <__data_start>
    1984:	91006000 	add	x0, x0, #0x18
    1988:	900000e1 	adrp	x1, 1d000 <__data_start>
    198c:	91006021 	add	x1, x1, #0x18
    1990:	cb000021 	sub	x1, x1, x0
    1994:	d37ffc22 	lsr	x2, x1, #63
    1998:	8b810c41 	add	x1, x2, x1, asr #3
    199c:	9341fc21 	asr	x1, x1, #1
    19a0:	b40000c1 	cbz	x1, 19b8 <register_tm_clones+0x38>
    19a4:	f00000c2 	adrp	x2, 1c000 <__FRAME_END__+0xfbe8>
    19a8:	f947c442 	ldr	x2, [x2, #3976]
    19ac:	b4000062 	cbz	x2, 19b8 <register_tm_clones+0x38>
    19b0:	aa0203f0 	mov	x16, x2
    19b4:	d61f0200 	br	x16
    19b8:	d65f03c0 	ret
    19bc:	d503201f 	nop

00000000000019c0 <__do_global_dtors_aux>:
    19c0:	a9be7bfd 	stp	x29, x30, [sp, #-32]!
    19c4:	910003fd 	mov	x29, sp
    19c8:	f9000bf3 	str	x19, [sp, #16]
    19cc:	900000f3 	adrp	x19, 1d000 <__data_start>
    19d0:	39408260 	ldrb	w0, [x19, #32]
    19d4:	35000140 	cbnz	w0, 19fc <__do_global_dtors_aux+0x3c>
    19d8:	f00000c0 	adrp	x0, 1c000 <__FRAME_END__+0xfbe8>
    19dc:	f947b400 	ldr	x0, [x0, #3944]
    19e0:	b4000080 	cbz	x0, 19f0 <__do_global_dtors_aux+0x30>
    19e4:	900000e0 	adrp	x0, 1d000 <__data_start>
    19e8:	f9400400 	ldr	x0, [x0, #8]
    19ec:	97ffff19 	bl	1650 <__cxa_finalize@plt>
    19f0:	97ffffd8 	bl	1950 <deregister_tm_clones>
    19f4:	52800020 	mov	w0, #0x1                   	// #1
    19f8:	39008260 	strb	w0, [x19, #32]
    19fc:	f9400bf3 	ldr	x19, [sp, #16]
    1a00:	a8c27bfd 	ldp	x29, x30, [sp], #32
    1a04:	d65f03c0 	ret
    1a08:	d503201f 	nop
    1a0c:	d503201f 	nop

0000000000001a10 <frame_dummy>:
    1a10:	17ffffdc 	b	1980 <register_tm_clones>
    1a14:	d503201f 	nop
    1a18:	d503201f 	nop
    1a1c:	d503201f 	nop

0000000000001a20 <norm2u3_._omp_fn.0>:
    1a20:	a9bb7bfd 	stp	x29, x30, [sp, #-80]!
    1a24:	910003fd 	mov	x29, sp
    1a28:	a90153f3 	stp	x19, x20, [sp, #16]
    1a2c:	aa0003f4 	mov	x20, x0
    1a30:	b9403800 	ldr	w0, [x0, #56]
    1a34:	f9001bf7 	str	x23, [sp, #48]
    1a38:	6d0427e8 	stp	d8, d9, [sp, #64]
    1a3c:	b9403e97 	ldr	w23, [x20, #60]
    1a40:	7100041f 	cmp	w0, #0x1
    1a44:	54000a6d 	b.le	1b90 <norm2u3_._omp_fn.0+0x170>
    1a48:	51000400 	sub	w0, w0, #0x1
    1a4c:	710006ff 	cmp	w23, #0x1
    1a50:	54000a0d 	b.le	1b90 <norm2u3_._omp_fn.0+0x170>
    1a54:	510006f3 	sub	w19, w23, #0x1
    1a58:	a9025bf5 	stp	x21, x22, [sp, #32]
    1a5c:	1b137c16 	mul	w22, w0, w19
    1a60:	97fffed8 	bl	15c0 <omp_get_num_threads@plt>
    1a64:	2a0003f5 	mov	w21, w0
    1a68:	97fffefe 	bl	1660 <omp_get_thread_num@plt>
    1a6c:	1ad50ac1 	udiv	w1, w22, w21
    1a70:	1b15d822 	msub	w2, w1, w21, w22
    1a74:	6b02001f 	cmp	w0, w2
    1a78:	54000863 	b.cc	1b84 <norm2u3_._omp_fn.0+0x164>  // b.lo, b.ul, b.last
    1a7c:	1b000822 	madd	w2, w1, w0, w2
    1a80:	0b020020 	add	w0, w1, w2
    1a84:	6b00005f 	cmp	w2, w0
    1a88:	54000522 	b.cs	1b2c <norm2u3_._omp_fn.0+0x10c>  // b.hs, b.nlast
    1a8c:	a9401287 	ldp	x7, x4, [x20]
    1a90:	2f00e409 	movi	d9, #0x0
    1a94:	1ad30845 	udiv	w5, w2, w19
    1a98:	51000420 	sub	w0, w1, #0x1
    1a9c:	a941268a 	ldp	x10, x9, [x20, #16]
    1aa0:	d2fffe01 	mov	x1, #0xfff0000000000000    	// #-4503599627370496
    1aa4:	f9401288 	ldr	x8, [x20, #32]
    1aa8:	1b1388a3 	msub	w3, w5, w19, w2
    1aac:	b9400086 	ldr	w6, [x4]
    1ab0:	110008a5 	add	w5, w5, #0x2
    1ab4:	11000863 	add	w3, w3, #0x2
    1ab8:	910020ec 	add	x12, x7, #0x8
    1abc:	51000ccb 	sub	w11, w6, #0x3
    1ac0:	9e670028 	fmov	d8, x1
    1ac4:	52800004 	mov	w4, #0x0                   	// #0
    1ac8:	710008df 	cmp	w6, #0x2
    1acc:	5400020d 	b.le	1b0c <norm2u3_._omp_fn.0+0xec>
    1ad0:	93407ca2 	sxtw	x2, w5
    1ad4:	93407c61 	sxtw	x1, w3
    1ad8:	9b092042 	madd	x2, x2, x9, x8
    1adc:	9b0a0821 	madd	x1, x1, x10, x2
    1ae0:	8b010162 	add	x2, x11, x1
    1ae4:	8b010ce1 	add	x1, x7, x1, lsl #3
    1ae8:	8b020d82 	add	x2, x12, x2, lsl #3
    1aec:	d503201f 	nop
    1af0:	fd400820 	ldr	d0, [x1, #16]
    1af4:	91002021 	add	x1, x1, #0x8
    1af8:	1e60c001 	fabs	d1, d0
    1afc:	1f402409 	fmadd	d9, d0, d0, d9
    1b00:	1e616908 	fmaxnm	d8, d8, d1
    1b04:	eb01005f 	cmp	x2, x1
    1b08:	54ffff41 	b.ne	1af0 <norm2u3_._omp_fn.0+0xd0>  // b.any
    1b0c:	6b04001f 	cmp	w0, w4
    1b10:	54000360 	b.eq	1b7c <norm2u3_._omp_fn.0+0x15c>  // b.none
    1b14:	11000461 	add	w1, w3, #0x1
    1b18:	6b17007f 	cmp	w3, w23
    1b1c:	540002aa 	b.ge	1b70 <norm2u3_._omp_fn.0+0x150>  // b.tcont
    1b20:	11000484 	add	w4, w4, #0x1
    1b24:	2a0103e3 	mov	w3, w1
    1b28:	17ffffe8 	b	1ac8 <norm2u3_._omp_fn.0+0xa8>
    1b2c:	a9425bf5 	ldp	x21, x22, [sp, #32]
    1b30:	2f00e409 	movi	d9, #0x0
    1b34:	d2fffe01 	mov	x1, #0xfff0000000000000    	// #-4503599627370496
    1b38:	9e670028 	fmov	d8, x1
    1b3c:	97fffefd 	bl	1730 <GOMP_atomic_start@plt>
    1b40:	f9401680 	ldr	x0, [x20, #40]
    1b44:	fd401a81 	ldr	d1, [x20, #48]
    1b48:	f9401bf7 	ldr	x23, [sp, #48]
    1b4c:	fd400000 	ldr	d0, [x0]
    1b50:	1e692821 	fadd	d1, d1, d9
    1b54:	1e686800 	fmaxnm	d0, d0, d8
    1b58:	6d4427e8 	ldp	d8, d9, [sp, #64]
    1b5c:	fd001a81 	str	d1, [x20, #48]
    1b60:	a94153f3 	ldp	x19, x20, [sp, #16]
    1b64:	fd000000 	str	d0, [x0]
    1b68:	a8c57bfd 	ldp	x29, x30, [sp], #80
    1b6c:	17fffed5 	b	16c0 <GOMP_atomic_end@plt>
    1b70:	110004a5 	add	w5, w5, #0x1
    1b74:	52800041 	mov	w1, #0x2                   	// #2
    1b78:	17ffffea 	b	1b20 <norm2u3_._omp_fn.0+0x100>
    1b7c:	a9425bf5 	ldp	x21, x22, [sp, #32]
    1b80:	17ffffef 	b	1b3c <norm2u3_._omp_fn.0+0x11c>
    1b84:	11000421 	add	w1, w1, #0x1
    1b88:	52800002 	mov	w2, #0x0                   	// #0
    1b8c:	17ffffbc 	b	1a7c <norm2u3_._omp_fn.0+0x5c>
    1b90:	d2fffe01 	mov	x1, #0xfff0000000000000    	// #-4503599627370496
    1b94:	2f00e409 	movi	d9, #0x0
    1b98:	9e670028 	fmov	d8, x1
    1b9c:	17ffffe8 	b	1b3c <norm2u3_._omp_fn.0+0x11c>

0000000000001ba0 <resid_._omp_fn.0>:
    1ba0:	d2822a0c 	mov	x12, #0x1150                	// #4432
    1ba4:	cb2c63ff 	sub	sp, sp, x12
    1ba8:	a9007bfd 	stp	x29, x30, [sp]
    1bac:	910003fd 	mov	x29, sp
    1bb0:	a90153f3 	stp	x19, x20, [sp, #16]
    1bb4:	aa0003f3 	mov	x19, x0
    1bb8:	b9407000 	ldr	w0, [x0, #112]
    1bbc:	b9407661 	ldr	w1, [x19, #116]
    1bc0:	b90097e1 	str	w1, [sp, #148]
    1bc4:	7100041f 	cmp	w0, #0x1
    1bc8:	540027ed 	b.le	20c4 <resid_._omp_fn.0+0x524>
    1bcc:	51000400 	sub	w0, w0, #0x1
    1bd0:	7100043f 	cmp	w1, #0x1
    1bd4:	5400278d 	b.le	20c4 <resid_._omp_fn.0+0x524>
    1bd8:	a9025bf5 	stp	x21, x22, [sp, #32]
    1bdc:	51000436 	sub	w22, w1, #0x1
    1be0:	1b167c15 	mul	w21, w0, w22
    1be4:	97fffe77 	bl	15c0 <omp_get_num_threads@plt>
    1be8:	2a0003f4 	mov	w20, w0
    1bec:	97fffe9d 	bl	1660 <omp_get_thread_num@plt>
    1bf0:	1ad40aa1 	udiv	w1, w21, w20
    1bf4:	1b14d422 	msub	w2, w1, w20, w21
    1bf8:	6b02001f 	cmp	w0, w2
    1bfc:	540032a3 	b.cc	2250 <resid_._omp_fn.0+0x6b0>  // b.lo, b.ul, b.last
    1c00:	1b000820 	madd	w0, w1, w0, w2
    1c04:	0b000022 	add	w2, w1, w0
    1c08:	6b02001f 	cmp	w0, w2
    1c0c:	54002662 	b.cs	20d8 <resid_._omp_fn.0+0x538>  // b.hs, b.nlast
    1c10:	a90573fb 	stp	x27, x28, [sp, #80]
    1c14:	51000421 	sub	w1, w1, #0x1
    1c18:	910443e3 	add	x3, sp, #0x110
    1c1c:	a941127b 	ldp	x27, x4, [x19, #16]
    1c20:	a9046bf9 	stp	x25, x26, [sp, #64]
    1c24:	9124c3e7 	add	x7, sp, #0x930
    1c28:	1ad60802 	udiv	w2, w0, w22
    1c2c:	b90093e1 	str	w1, [sp, #144]
    1c30:	a9442a69 	ldp	x9, x10, [x19, #64]
    1c34:	a90363f7 	stp	x23, x24, [sp, #48]
    1c38:	b940009a 	ldr	w26, [x4]
    1c3c:	1b168040 	msub	w0, w2, w22, w0
    1c40:	a907a7ea 	stp	x10, x9, [sp, #120]
    1c44:	51000b48 	sub	w8, w26, #0x2
    1c48:	121f7901 	and	w1, w8, #0xfffffffe
    1c4c:	b900ffe1 	str	w1, [sp, #252]
    1c50:	11000831 	add	w17, w1, #0x2
    1c54:	53017f41 	lsr	w1, w26, #1
    1c58:	51000421 	sub	w1, w1, #0x1
    1c5c:	11000800 	add	w0, w0, #0x2
    1c60:	91000421 	add	x1, x1, #0x1
    1c64:	51001745 	sub	w5, w26, #0x5
    1c68:	290d7fe0 	stp	w0, wzr, [sp, #104]
    1c6c:	11000840 	add	w0, w2, #0x2
    1c70:	f9401264 	ldr	x4, [x19, #32]
    1c74:	d37cec21 	lsl	x1, x1, #4
    1c78:	53017d06 	lsr	w6, w8, #1
    1c7c:	b9008fe0 	str	w0, [sp, #140]
    1c80:	d37ff940 	lsl	x0, x10, #1
    1c84:	510004c6 	sub	w6, w6, #0x1
    1c88:	53017ca5 	lsr	w5, w5, #1
    1c8c:	f9006be0 	str	x0, [sp, #208]
    1c90:	d37ff920 	lsl	x0, x9, #1
    1c94:	f90077e1 	str	x1, [sp, #232]
    1c98:	91000901 	add	x1, x8, #0x2
    1c9c:	910004c6 	add	x6, x6, #0x1
    1ca0:	11000ca5 	add	w5, w5, #0x3
    1ca4:	f90067e0 	str	x0, [sp, #200]
    1ca8:	91008080 	add	x0, x4, #0x20
    1cac:	f9006fe1 	str	x1, [sp, #216]
    1cb0:	121f7b41 	and	w1, w26, #0xfffffffe
    1cb4:	f90073e0 	str	x0, [sp, #224]
    1cb8:	b900fbe1 	str	w1, [sp, #248]
    1cbc:	32000341 	orr	w1, w26, #0x1
    1cc0:	f9400660 	ldr	x0, [x19, #8]
    1cc4:	d37cecc6 	lsl	x6, x6, #4
    1cc8:	d37ff8a5 	lsl	x5, x5, #1
    1ccc:	f90033e0 	str	x0, [sp, #96]
    1cd0:	f9007be6 	str	x6, [sp, #240]
    1cd4:	93407e31 	sxtw	x17, w17
    1cd8:	b90103e8 	str	w8, [sp, #256]
    1cdc:	d100063c 	sub	x28, x17, #0x1
    1ce0:	b90107e1 	str	w1, [sp, #260]
    1ce4:	d1000a34 	sub	x20, x17, #0x2
    1ce8:	f90087e5 	str	x5, [sp, #264]
    1cec:	d37df39c 	lsl	x28, x28, #3
    1cf0:	f9400261 	ldr	x1, [x19]
    1cf4:	d37df294 	lsl	x20, x20, #3
    1cf8:	f9401660 	ldr	x0, [x19, #40]
    1cfc:	f90063e0 	str	x0, [sp, #192]
    1d00:	f9401a60 	ldr	x0, [x19, #48]
    1d04:	f9005fe0 	str	x0, [sp, #184]
    1d08:	f9401e60 	ldr	x0, [x19, #56]
    1d0c:	f9005be0 	str	x0, [sp, #176]
    1d10:	f9402a60 	ldr	x0, [x19, #80]
    1d14:	f9003be0 	str	x0, [sp, #112]
    1d18:	f9402e60 	ldr	x0, [x19, #88]
    1d1c:	f90057e0 	str	x0, [sp, #168]
    1d20:	f9403260 	ldr	x0, [x19, #96]
    1d24:	d37df237 	lsl	x23, x17, #3
    1d28:	f90053e0 	str	x0, [sp, #160]
    1d2c:	f9403660 	ldr	x0, [x19, #104]
    1d30:	f9004fe0 	str	x0, [sp, #152]
    1d34:	d503201f 	nop
    1d38:	7100035f 	cmp	w26, #0x0
    1d3c:	54001a2d 	b.le	2080 <resid_._omp_fn.0+0x4e0>
    1d40:	b9406be0 	ldr	w0, [sp, #104]
    1d44:	b9808fe5 	ldrsw	x5, [sp, #140]
    1d48:	51000406 	sub	w6, w0, #0x1
    1d4c:	a94703e8 	ldp	x8, x0, [sp, #112]
    1d50:	93407cc6 	sxtw	x6, w6
    1d54:	f94043e9 	ldr	x9, [sp, #128]
    1d58:	9b007ca2 	mul	x2, x5, x0
    1d5c:	9b097cc6 	mul	x6, x6, x9
    1d60:	cb00004f 	sub	x15, x2, x0
    1d64:	8b020102 	add	x2, x8, x2
    1d68:	f9406be0 	ldr	x0, [sp, #208]
    1d6c:	8b0f0010 	add	x16, x0, x15
    1d70:	8b0f010f 	add	x15, x8, x15
    1d74:	f94067e0 	ldr	x0, [sp, #200]
    1d78:	8b100110 	add	x16, x8, x16
    1d7c:	8b1000cb 	add	x11, x6, x16
    1d80:	8b0f00cd 	add	x13, x6, x15
    1d84:	8b060000 	add	x0, x0, x6
    1d88:	cb090012 	sub	x18, x0, x9
    1d8c:	8b000048 	add	x8, x2, x0
    1d90:	8b1201ec 	add	x12, x15, x18
    1d94:	8b10024a 	add	x10, x18, x16
    1d98:	8b100009 	add	x9, x0, x16
    1d9c:	8b060042 	add	x2, x2, x6
    1da0:	8b0f000e 	add	x14, x0, x15
    1da4:	7100075f 	cmp	w26, #0x1
    1da8:	54002500 	b.eq	2248 <resid_._omp_fn.0+0x6a8>  // b.none
    1dac:	91000400 	add	x0, x0, #0x1
    1db0:	91000652 	add	x18, x18, #0x1
    1db4:	910004c6 	add	x6, x6, #0x1
    1db8:	8b1201fe 	add	x30, x15, x18
    1dbc:	8b0601f9 	add	x25, x15, x6
    1dc0:	8b120212 	add	x18, x16, x18
    1dc4:	8b0001ef 	add	x15, x15, x0
    1dc8:	8b060206 	add	x6, x16, x6
    1dcc:	91000458 	add	x24, x2, #0x1
    1dd0:	8b000210 	add	x16, x16, x0
    1dd4:	91000516 	add	x22, x8, #0x1
    1dd8:	b9008bfa 	str	w26, [sp, #136]
    1ddc:	f94077fa 	ldr	x26, [sp, #232]
    1de0:	8b1e0c3e 	add	x30, x1, x30, lsl #3
    1de4:	8b120c32 	add	x18, x1, x18, lsl #3
    1de8:	8b190c39 	add	x25, x1, x25, lsl #3
    1dec:	8b0f0c2f 	add	x15, x1, x15, lsl #3
    1df0:	8b060c26 	add	x6, x1, x6, lsl #3
    1df4:	8b100c30 	add	x16, x1, x16, lsl #3
    1df8:	8b180c38 	add	x24, x1, x24, lsl #3
    1dfc:	8b160c36 	add	x22, x1, x22, lsl #3
    1e00:	aa0303f5 	mov	x21, x3
    1e04:	aa0703f3 	mov	x19, x7
    1e08:	d2800000 	mov	x0, #0x0                   	// #0
    1e0c:	d503201f 	nop
    1e10:	3ce06b01 	ldr	q1, [x24, x0]
    1e14:	3ce06ac0 	ldr	q0, [x22, x0]
    1e18:	3ce06bc2 	ldr	q2, [x30, x0]
    1e1c:	4e61d400 	fadd	v0.2d, v0.2d, v1.2d
    1e20:	3ce06a41 	ldr	q1, [x18, x0]
    1e24:	4e62d400 	fadd	v0.2d, v0.2d, v2.2d
    1e28:	4e61d400 	fadd	v0.2d, v0.2d, v1.2d
    1e2c:	3c810660 	str	q0, [x19], #16
    1e30:	3ce06b21 	ldr	q1, [x25, x0]
    1e34:	3ce069e0 	ldr	q0, [x15, x0]
    1e38:	3ce068c2 	ldr	q2, [x6, x0]
    1e3c:	4e61d400 	fadd	v0.2d, v0.2d, v1.2d
    1e40:	3ce06a01 	ldr	q1, [x16, x0]
    1e44:	91004000 	add	x0, x0, #0x10
    1e48:	4e62d400 	fadd	v0.2d, v0.2d, v2.2d
    1e4c:	4e61d400 	fadd	v0.2d, v0.2d, v1.2d
    1e50:	3c8106a0 	str	q0, [x21], #16
    1e54:	eb1a001f 	cmp	x0, x26
    1e58:	54fffdc1 	b.ne	1e10 <resid_._omp_fn.0+0x270>  // b.any
    1e5c:	b9408bfa 	ldr	w26, [sp, #136]
    1e60:	b940fbe0 	ldr	w0, [sp, #248]
    1e64:	6b1a001f 	cmp	w0, w26
    1e68:	54000380 	b.eq	1ed8 <resid_._omp_fn.0+0x338>  // b.none
    1e6c:	b94107e0 	ldr	w0, [sp, #260]
    1e70:	93407c00 	sxtw	x0, w0
    1e74:	8b000108 	add	x8, x8, x0
    1e78:	8b000042 	add	x2, x2, x0
    1e7c:	8b0001ce 	add	x14, x14, x0
    1e80:	8b0001ad 	add	x13, x13, x0
    1e84:	8b00018c 	add	x12, x12, x0
    1e88:	8b00016b 	add	x11, x11, x0
    1e8c:	fc627823 	ldr	d3, [x1, x2, lsl #3]
    1e90:	8b00014a 	add	x10, x10, x0
    1e94:	fc6d7822 	ldr	d2, [x1, x13, lsl #3]
    1e98:	8b000129 	add	x9, x9, x0
    1e9c:	fc687821 	ldr	d1, [x1, x8, lsl #3]
    1ea0:	d1000400 	sub	x0, x0, #0x1
    1ea4:	fc6e7820 	ldr	d0, [x1, x14, lsl #3]
    1ea8:	fc6c7825 	ldr	d5, [x1, x12, lsl #3]
    1eac:	1e632821 	fadd	d1, d1, d3
    1eb0:	fc6b7824 	ldr	d4, [x1, x11, lsl #3]
    1eb4:	1e622800 	fadd	d0, d0, d2
    1eb8:	fc6a7823 	ldr	d3, [x1, x10, lsl #3]
    1ebc:	fc697822 	ldr	d2, [x1, x9, lsl #3]
    1ec0:	1e652821 	fadd	d1, d1, d5
    1ec4:	1e642800 	fadd	d0, d0, d4
    1ec8:	1e632821 	fadd	d1, d1, d3
    1ecc:	1e622800 	fadd	d0, d0, d2
    1ed0:	fc2078e1 	str	d1, [x7, x0, lsl #3]
    1ed4:	fc207860 	str	d0, [x3, x0, lsl #3]
    1ed8:	71000b5f 	cmp	w26, #0x2
    1edc:	54000d2d 	b.le	2080 <resid_._omp_fn.0+0x4e0>
    1ee0:	a94b0bed 	ldp	x13, x2, [sp, #176]
    1ee4:	b9806be0 	ldrsw	x0, [sp, #104]
    1ee8:	f94043f0 	ldr	x16, [sp, #128]
    1eec:	f9404fee 	ldr	x14, [sp, #152]
    1ef0:	9b057c49 	mul	x9, x2, x5
    1ef4:	f94053e2 	ldr	x2, [sp, #160]
    1ef8:	f9403bef 	ldr	x15, [sp, #112]
    1efc:	9b057c48 	mul	x8, x2, x5
    1f00:	f9403fe2 	ldr	x2, [sp, #120]
    1f04:	8b0801cc 	add	x12, x14, x8
    1f08:	9b057c46 	mul	x6, x2, x5
    1f0c:	8b0901a5 	add	x5, x13, x9
    1f10:	f94063e2 	ldr	x2, [sp, #192]
    1f14:	8b0601eb 	add	x11, x15, x6
    1f18:	9b007c4a 	mul	x10, x2, x0
    1f1c:	f94057e2 	ldr	x2, [sp, #168]
    1f20:	8b090149 	add	x9, x10, x9
    1f24:	8b0d0129 	add	x9, x9, x13
    1f28:	8b0a00a5 	add	x5, x5, x10
    1f2c:	f9406fed 	ldr	x13, [sp, #216]
    1f30:	9b007c42 	mul	x2, x2, x0
    1f34:	9b007e00 	mul	x0, x16, x0
    1f38:	8b0901ad 	add	x13, x13, x9
    1f3c:	8b080048 	add	x8, x2, x8
    1f40:	8b0e0108 	add	x8, x8, x14
    1f44:	8b060006 	add	x6, x0, x6
    1f48:	8b0d0f6d 	add	x13, x27, x13, lsl #3
    1f4c:	91000929 	add	x9, x9, #0x2
    1f50:	eb0d009f 	cmp	x4, x13
    1f54:	91000d08 	add	x8, x8, #0x3
    1f58:	f94073ed 	ldr	x13, [sp, #224]
    1f5c:	8b0f00c6 	add	x6, x6, x15
    1f60:	f94033ee 	ldr	x14, [sp, #96]
    1f64:	8b090f69 	add	x9, x27, x9, lsl #3
    1f68:	91000cc6 	add	x6, x6, #0x3
    1f6c:	fa4931a0 	ccmp	x13, x9, #0x0, cc  // cc = lo, ul, last
    1f70:	d37df108 	lsl	x8, x8, #3
    1f74:	7a439b44 	ccmp	w26, #0x3, #0x4, ls  // ls = plast
    1f78:	8b0801cd 	add	x13, x14, x8
    1f7c:	d37df0c6 	lsl	x6, x6, #3
    1f80:	1a9f07ea 	cset	w10, ne  // ne = any
    1f84:	eb0901bf 	cmp	x13, x9
    1f88:	8b06002d 	add	x13, x1, x6
    1f8c:	8b000160 	add	x0, x11, x0
    1f90:	fa4911a4 	ccmp	x13, x9, #0x4, ne  // ne = any
    1f94:	8b020182 	add	x2, x12, x2
    1f98:	1a9f07eb 	cset	w11, ne  // ne = any
    1f9c:	6a0b015f 	tst	w10, w11
    1fa0:	54000a80 	b.eq	20f0 <resid_._omp_fn.0+0x550>  // b.none
    1fa4:	6d411887 	ldp	d7, d6, [x4, #16]
    1fa8:	d1002108 	sub	x8, x8, #0x8
    1fac:	d10020c6 	sub	x6, x6, #0x8
    1fb0:	8b0801c8 	add	x8, x14, x8
    1fb4:	f9407bed 	ldr	x13, [sp, #240]
    1fb8:	8b060026 	add	x6, x1, x6
    1fbc:	4e0804e7 	dup	v7.2d, v7.d[0]
    1fc0:	4d40cc90 	ld1r	{v16.2d}, [x4]
    1fc4:	4e0804c6 	dup	v6.2d, v6.d[0]
    1fc8:	d280000a 	mov	x10, #0x0                   	// #0
    1fcc:	3dc047e4 	ldr	q4, [sp, #272]
    1fd0:	3dc24fe3 	ldr	q3, [sp, #2352]
    1fd4:	d503201f 	nop
    1fd8:	8b0a006b 	add	x11, x3, x10
    1fdc:	8b0a00ec 	add	x12, x7, x10
    1fe0:	3cea68c5 	ldr	q5, [x6, x10]
    1fe4:	3cc08161 	ldur	q1, [x11, #8]
    1fe8:	3cea6900 	ldr	q0, [x8, x10]
    1fec:	4e63d421 	fadd	v1.2d, v1.2d, v3.2d
    1ff0:	3dc00583 	ldr	q3, [x12, #16]
    1ff4:	4ea41c82 	mov	v2.16b, v4.16b
    1ff8:	4ef0cca0 	fmls	v0.2d, v5.2d, v16.2d
    1ffc:	4e61d461 	fadd	v1.2d, v3.2d, v1.2d
    2000:	3dc00564 	ldr	q4, [x11, #16]
    2004:	4ee7cc20 	fmls	v0.2d, v1.2d, v7.2d
    2008:	4e64d441 	fadd	v1.2d, v2.2d, v4.2d
    200c:	4ee6cc20 	fmls	v0.2d, v1.2d, v6.2d
    2010:	3caa6920 	str	q0, [x9, x10]
    2014:	9100414a 	add	x10, x10, #0x10
    2018:	eb0d015f 	cmp	x10, x13
    201c:	54fffde1 	b.ne	1fd8 <resid_._omp_fn.0+0x438>  // b.any
    2020:	295fa3e6 	ldp	w6, w8, [sp, #252]
    2024:	6b0800df 	cmp	w6, w8
    2028:	540002c0 	b.eq	2080 <resid_._omp_fn.0+0x4e0>  // b.none
    202c:	8b110000 	add	x0, x0, x17
    2030:	fc7c6860 	ldr	d0, [x3, x28]
    2034:	fc7468e1 	ldr	d1, [x7, x20]
    2038:	8b110042 	add	x2, x2, x17
    203c:	fd400082 	ldr	d2, [x4]
    2040:	8b1100a5 	add	x5, x5, x17
    2044:	fc607824 	ldr	d4, [x1, x0, lsl #3]
    2048:	f94033e0 	ldr	x0, [sp, #96]
    204c:	1e602821 	fadd	d1, d1, d0
    2050:	fc7768e3 	ldr	d3, [x7, x23]
    2054:	fc746865 	ldr	d5, [x3, x20]
    2058:	fc627800 	ldr	d0, [x0, x2, lsl #3]
    205c:	1f428080 	fmsub	d0, d4, d2, d0
    2060:	1e632821 	fadd	d1, d1, d3
    2064:	fc776862 	ldr	d2, [x3, x23]
    2068:	fd400884 	ldr	d4, [x4, #16]
    206c:	fd400c83 	ldr	d3, [x4, #24]
    2070:	1e652842 	fadd	d2, d2, d5
    2074:	1f448020 	fmsub	d0, d1, d4, d0
    2078:	1f438040 	fmsub	d0, d2, d3, d0
    207c:	fc257b60 	str	d0, [x27, x5, lsl #3]
    2080:	b9406fe0 	ldr	w0, [sp, #108]
    2084:	b94093e2 	ldr	w2, [sp, #144]
    2088:	6b02001f 	cmp	w0, w2
    208c:	54000140 	b.eq	20b4 <resid_._omp_fn.0+0x514>  // b.none
    2090:	b9406be2 	ldr	w2, [sp, #104]
    2094:	b94097e5 	ldr	w5, [sp, #148]
    2098:	11000440 	add	w0, w2, #0x1
    209c:	6b05005f 	cmp	w2, w5
    20a0:	54000caa 	b.ge	2234 <resid_._omp_fn.0+0x694>  // b.tcont
    20a4:	b9406fe2 	ldr	w2, [sp, #108]
    20a8:	11000442 	add	w2, w2, #0x1
    20ac:	290d0be0 	stp	w0, w2, [sp, #104]
    20b0:	17ffff22 	b	1d38 <resid_._omp_fn.0+0x198>
    20b4:	a9425bf5 	ldp	x21, x22, [sp, #32]
    20b8:	a94363f7 	ldp	x23, x24, [sp, #48]
    20bc:	a9446bf9 	ldp	x25, x26, [sp, #64]
    20c0:	a94573fb 	ldp	x27, x28, [sp, #80]
    20c4:	d2822a0c 	mov	x12, #0x1150                	// #4432
    20c8:	a9407bfd 	ldp	x29, x30, [sp]
    20cc:	a94153f3 	ldp	x19, x20, [sp, #16]
    20d0:	8b2c63ff 	add	sp, sp, x12
    20d4:	d65f03c0 	ret
    20d8:	d2822a0c 	mov	x12, #0x1150                	// #4432
    20dc:	a9407bfd 	ldp	x29, x30, [sp]
    20e0:	a94153f3 	ldp	x19, x20, [sp, #16]
    20e4:	a9425bf5 	ldp	x21, x22, [sp, #32]
    20e8:	8b2c63ff 	add	sp, sp, x12
    20ec:	d65f03c0 	ret
    20f0:	7100135f 	cmp	w26, #0x4
    20f4:	54000b4d 	b.le	225c <resid_._omp_fn.0+0x6bc>
    20f8:	d37df042 	lsl	x2, x2, #3
    20fc:	d37df000 	lsl	x0, x0, #3
    2100:	8b0201ca 	add	x10, x14, x2
    2104:	8b000029 	add	x9, x1, x0
    2108:	d37df0a5 	lsl	x5, x5, #3
    210c:	d100414d 	sub	x13, x10, #0x10
    2110:	6d5107e2 	ldp	d2, d1, [sp, #272]
    2114:	8b050366 	add	x6, x27, x5
    2118:	d100412c 	sub	x12, x9, #0x10
    211c:	d100214a 	sub	x10, x10, #0x8
    2120:	d1002129 	sub	x9, x9, #0x8
    2124:	fd449be4 	ldr	d4, [sp, #2352]
    2128:	fd449fe3 	ldr	d3, [sp, #2360]
    212c:	d10040ce 	sub	x14, x6, #0x10
    2130:	d10020cf 	sub	x15, x6, #0x8
    2134:	d2800086 	mov	x6, #0x4                   	// #4
    2138:	d37df0c8 	lsl	x8, x6, #3
    213c:	1e612890 	fadd	d16, d4, d1
    2140:	8b0800eb 	add	x11, x7, x8
    2144:	8b080068 	add	x8, x3, x8
    2148:	1e604047 	fmov	d7, d2
    214c:	1e604025 	fmov	d5, d1
    2150:	fc667991 	ldr	d17, [x12, x6, lsl #3]
    2154:	2a0603f0 	mov	w16, w6
    2158:	6d7f0502 	ldp	d2, d1, [x8, #-16]
    215c:	fd400086 	ldr	d6, [x4]
    2160:	fc6679a0 	ldr	d0, [x13, x6, lsl #3]
    2164:	fd400892 	ldr	d18, [x4, #16]
    2168:	1e6228e7 	fadd	d7, d7, d2
    216c:	1f468220 	fmsub	d0, d17, d6, d0
    2170:	1e622866 	fadd	d6, d3, d2
    2174:	6d7f0d64 	ldp	d4, d3, [x11, #-16]
    2178:	1e652825 	fadd	d5, d1, d5
    217c:	fd400c91 	ldr	d17, [x4, #24]
    2180:	f94087e8 	ldr	x8, [sp, #264]
    2184:	1e702890 	fadd	d16, d4, d16
    2188:	1e662866 	fadd	d6, d3, d6
    218c:	1f528200 	fmsub	d0, d16, d18, d0
    2190:	1f5180e0 	fmsub	d0, d7, d17, d0
    2194:	fc2679c0 	str	d0, [x14, x6, lsl #3]
    2198:	fc667927 	ldr	d7, [x9, x6, lsl #3]
    219c:	fd400091 	ldr	d17, [x4]
    21a0:	fc667940 	ldr	d0, [x10, x6, lsl #3]
    21a4:	fd400890 	ldr	d16, [x4, #16]
    21a8:	1f478220 	fmsub	d0, d17, d7, d0
    21ac:	fd400c87 	ldr	d7, [x4, #24]
    21b0:	1f468200 	fmsub	d0, d16, d6, d0
    21b4:	1f4780a0 	fmsub	d0, d5, d7, d0
    21b8:	fc2679e0 	str	d0, [x15, x6, lsl #3]
    21bc:	910008c6 	add	x6, x6, #0x2
    21c0:	eb06011f 	cmp	x8, x6
    21c4:	54fffba1 	b.ne	2138 <resid_._omp_fn.0+0x598>  // b.any
    21c8:	f94033e6 	ldr	x6, [sp, #96]
    21cc:	937d7e08 	sbfiz	x8, x16, #3, #32
    21d0:	8b080069 	add	x9, x3, x8
    21d4:	8b000020 	add	x0, x1, x0
    21d8:	8b0200c2 	add	x2, x6, x2
    21dc:	8b050365 	add	x5, x27, x5
    21e0:	8b0800e8 	add	x8, x7, x8
    21e4:	93407e06 	sxtw	x6, w16
    21e8:	6d7f0522 	ldp	d2, d1, [x9, #-16]
    21ec:	fc5f0100 	ldur	d0, [x8, #-16]
    21f0:	fc667804 	ldr	d4, [x0, x6, lsl #3]
    21f4:	fd400085 	ldr	d5, [x4]
    21f8:	1e602821 	fadd	d1, d1, d0
    21fc:	fc408503 	ldr	d3, [x8], #8
    2200:	fc667840 	ldr	d0, [x2, x6, lsl #3]
    2204:	1f4480a0 	fmsub	d0, d5, d4, d0
    2208:	fc408525 	ldr	d5, [x9], #8
    220c:	1e632821 	fadd	d1, d1, d3
    2210:	6d410c84 	ldp	d4, d3, [x4, #16]
    2214:	1e652842 	fadd	d2, d2, d5
    2218:	1f418080 	fmsub	d0, d4, d1, d0
    221c:	1f428060 	fmsub	d0, d3, d2, d0
    2220:	fc2678a0 	str	d0, [x5, x6, lsl #3]
    2224:	910004c6 	add	x6, x6, #0x1
    2228:	6b06035f 	cmp	w26, w6
    222c:	54fffdec 	b.gt	21e8 <resid_._omp_fn.0+0x648>
    2230:	17ffff94 	b	2080 <resid_._omp_fn.0+0x4e0>
    2234:	b9408fe0 	ldr	w0, [sp, #140]
    2238:	11000400 	add	w0, w0, #0x1
    223c:	b9008fe0 	str	w0, [sp, #140]
    2240:	52800040 	mov	w0, #0x2                   	// #2
    2244:	17ffff98 	b	20a4 <resid_._omp_fn.0+0x504>
    2248:	2a1a03e0 	mov	w0, w26
    224c:	17ffff09 	b	1e70 <resid_._omp_fn.0+0x2d0>
    2250:	11000421 	add	w1, w1, #0x1
    2254:	52800002 	mov	w2, #0x0                   	// #0
    2258:	17fffe6a 	b	1c00 <resid_._omp_fn.0+0x60>
    225c:	d37df042 	lsl	x2, x2, #3
    2260:	d37df000 	lsl	x0, x0, #3
    2264:	d37df0a5 	lsl	x5, x5, #3
    2268:	52800050 	mov	w16, #0x2                   	// #2
    226c:	17ffffd7 	b	21c8 <resid_._omp_fn.0+0x628>

0000000000002270 <zran3_._omp_fn.2>:
    2270:	a9b97bfd 	stp	x29, x30, [sp, #-112]!
    2274:	910003fd 	mov	x29, sp
    2278:	a90153f3 	stp	x19, x20, [sp, #16]
    227c:	a90363f7 	stp	x23, x24, [sp, #48]
    2280:	29455017 	ldp	w23, w20, [x0, #40]
    2284:	710002ff 	cmp	w23, #0x0
    2288:	5400078d 	b.le	2378 <zran3_._omp_fn.2+0x108>
    228c:	7100029f 	cmp	w20, #0x0
    2290:	5400074d 	b.le	2378 <zran3_._omp_fn.2+0x108>
    2294:	1b147ef7 	mul	w23, w23, w20
    2298:	a9025bf5 	stp	x21, x22, [sp, #32]
    229c:	aa0003f6 	mov	x22, x0
    22a0:	97fffcc8 	bl	15c0 <omp_get_num_threads@plt>
    22a4:	2a0003f5 	mov	w21, w0
    22a8:	97fffcee 	bl	1660 <omp_get_thread_num@plt>
    22ac:	2a0003e1 	mov	w1, w0
    22b0:	1ad50af3 	udiv	w19, w23, w21
    22b4:	1b15de62 	msub	w2, w19, w21, w23
    22b8:	6b02001f 	cmp	w0, w2
    22bc:	54000703 	b.cc	239c <zran3_._omp_fn.2+0x12c>  // b.lo, b.ul, b.last
    22c0:	1b010a61 	madd	w1, w19, w1, w2
    22c4:	0b010260 	add	w0, w19, w1
    22c8:	6b00003f 	cmp	w1, w0
    22cc:	540005e2 	b.cs	2388 <zran3_._omp_fn.2+0x118>  // b.hs, b.nlast
    22d0:	a9046bf9 	stp	x25, x26, [sp, #64]
    22d4:	a94002d9 	ldp	x25, x0, [x22]
    22d8:	a90573fb 	stp	x27, x28, [sp, #80]
    22dc:	1ad4083a 	udiv	w26, w1, w20
    22e0:	a9415ed8 	ldp	x24, x23, [x22, #16]
    22e4:	b9400002 	ldr	w2, [x0]
    22e8:	1b148741 	msub	w1, w26, w20, w1
    22ec:	11000740 	add	w0, w26, #0x1
    22f0:	b9006fe0 	str	w0, [sp, #108]
    22f4:	1100043b 	add	w27, w1, #0x1
    22f8:	f94012d6 	ldr	x22, [x22, #32]
    22fc:	7100005f 	cmp	w2, #0x0
    2300:	5400036d 	b.le	236c <zran3_._omp_fn.2+0xfc>
    2304:	51000673 	sub	w19, w19, #0x1
    2308:	937d7c5a 	sbfiz	x26, x2, #3, #32
    230c:	93407c15 	sxtw	x21, w0
    2310:	5280001c 	mov	w28, #0x0                   	// #0
    2314:	14000003 	b	2320 <zran3_._omp_fn.2+0xb0>
    2318:	1100079c 	add	w28, w28, #0x1
    231c:	2a0003fb 	mov	w27, w0
    2320:	93407f60 	sxtw	x0, w27
    2324:	9b175aa3 	madd	x3, x21, x23, x22
    2328:	aa1a03e2 	mov	x2, x26
    232c:	52800001 	mov	w1, #0x0                   	// #0
    2330:	9b180c00 	madd	x0, x0, x24, x3
    2334:	91000400 	add	x0, x0, #0x1
    2338:	8b000f20 	add	x0, x25, x0, lsl #3
    233c:	97fffd51 	bl	1880 <memset@plt>
    2340:	6b1c027f 	cmp	w19, w28
    2344:	54000140 	b.eq	236c <zran3_._omp_fn.2+0xfc>  // b.none
    2348:	11000760 	add	w0, w27, #0x1
    234c:	6b14037f 	cmp	w27, w20
    2350:	54fffe4b 	b.lt	2318 <zran3_._omp_fn.2+0xa8>  // b.tstop
    2354:	b9406fe0 	ldr	w0, [sp, #108]
    2358:	11000400 	add	w0, w0, #0x1
    235c:	93407c15 	sxtw	x21, w0
    2360:	52800020 	mov	w0, #0x1                   	// #1
    2364:	b9006ff5 	str	w21, [sp, #108]
    2368:	17ffffec 	b	2318 <zran3_._omp_fn.2+0xa8>
    236c:	a9425bf5 	ldp	x21, x22, [sp, #32]
    2370:	a9446bf9 	ldp	x25, x26, [sp, #64]
    2374:	a94573fb 	ldp	x27, x28, [sp, #80]
    2378:	a94153f3 	ldp	x19, x20, [sp, #16]
    237c:	a94363f7 	ldp	x23, x24, [sp, #48]
    2380:	a8c77bfd 	ldp	x29, x30, [sp], #112
    2384:	d65f03c0 	ret
    2388:	a94153f3 	ldp	x19, x20, [sp, #16]
    238c:	a9425bf5 	ldp	x21, x22, [sp, #32]
    2390:	a94363f7 	ldp	x23, x24, [sp, #48]
    2394:	a8c77bfd 	ldp	x29, x30, [sp], #112
    2398:	d65f03c0 	ret
    239c:	11000673 	add	w19, w19, #0x1
    23a0:	52800002 	mov	w2, #0x0                   	// #0
    23a4:	17ffffc7 	b	22c0 <zran3_._omp_fn.2+0x50>
    23a8:	d503201f 	nop
    23ac:	d503201f 	nop

00000000000023b0 <zran3_._omp_fn.0>:
    23b0:	a9b77bfd 	stp	x29, x30, [sp, #-144]!
    23b4:	910003fd 	mov	x29, sp
    23b8:	a9046bf9 	stp	x25, x26, [sp, #64]
    23bc:	aa0003fa 	mov	x26, x0
    23c0:	a90153f3 	stp	x19, x20, [sp, #16]
    23c4:	97fffc7f 	bl	15c0 <omp_get_num_threads@plt>
    23c8:	2a0003f3 	mov	w19, w0
    23cc:	97fffca5 	bl	1660 <omp_get_thread_num@plt>
    23d0:	b9403341 	ldr	w1, [x26, #48]
    23d4:	51000421 	sub	w1, w1, #0x1
    23d8:	1ad30c22 	sdiv	w2, w1, w19
    23dc:	1b138441 	msub	w1, w2, w19, w1
    23e0:	6b01001f 	cmp	w0, w1
    23e4:	5400084b 	b.lt	24ec <zran3_._omp_fn.0+0x13c>  // b.tstop
    23e8:	1b000440 	madd	w0, w2, w0, w1
    23ec:	0b000042 	add	w2, w2, w0
    23f0:	6b02001f 	cmp	w0, w2
    23f4:	5400074a 	b.ge	24dc <zran3_._omp_fn.0+0x12c>  // b.tcont
    23f8:	a90363f7 	stp	x23, x24, [sp, #48]
    23fc:	11000800 	add	w0, w0, #0x2
    2400:	11000842 	add	w2, w2, #0x2
    2404:	a9408757 	ldp	x23, x1, [x26, #8]
    2408:	a90573fb 	stp	x27, x28, [sp, #80]
    240c:	d00000db 	adrp	x27, 1c000 <__FRAME_END__+0xfbe8>
    2410:	f9400f59 	ldr	x25, [x26, #24]
    2414:	93407c18 	sxtw	x24, w0
    2418:	f947b37b 	ldr	x27, [x27, #3936]
    241c:	910006e0 	add	x0, x23, #0x1
    2420:	b9403754 	ldr	w20, [x26, #52]
    2424:	9b186439 	madd	x25, x1, x24, x25
    2428:	d37cec00 	lsl	x0, x0, #4
    242c:	d37df2f7 	lsl	x23, x23, #3
    2430:	b90067e2 	str	w2, [sp, #100]
    2434:	b0000042 	adrp	x2, b000 <_IO_stdin_used+0x620>
    2438:	f9003fe0 	str	x0, [sp, #120]
    243c:	d1002360 	sub	x0, x27, #0x8
    2440:	9100605b 	add	x27, x2, #0x18
    2444:	a9025bf5 	stp	x21, x22, [sp, #32]
    2448:	f90037e1 	str	x1, [sp, #104]
    244c:	f9003be0 	str	x0, [sp, #112]
    2450:	f9403be0 	ldr	x0, [sp, #112]
    2454:	fc787800 	ldr	d0, [x0, x24, lsl #3]
    2458:	fd0043e0 	str	d0, [sp, #128]
    245c:	7100069f 	cmp	w20, #0x1
    2460:	540002cd 	b.le	24b8 <zran3_._omp_fn.0+0x108>
    2464:	f9403fe0 	ldr	x0, [sp, #120]
    2468:	910223f6 	add	x22, sp, #0x88
    246c:	910203f5 	add	x21, sp, #0x80
    2470:	5280005c 	mov	w28, #0x2                   	// #2
    2474:	8b190c13 	add	x19, x0, x25, lsl #3
    2478:	14000002 	b	2480 <zran3_._omp_fn.0+0xd0>
    247c:	fd4043e0 	ldr	d0, [sp, #128]
    2480:	f9401740 	ldr	x0, [x26, #40]
    2484:	aa1603e1 	mov	x1, x22
    2488:	f9400343 	ldr	x3, [x26]
    248c:	aa1b03e2 	mov	x2, x27
    2490:	fd0047e0 	str	d0, [sp, #136]
    2494:	1100079c 	add	w28, w28, #0x1
    2498:	8b130063 	add	x3, x3, x19
    249c:	94001fe9 	bl	a440 <vranlc_>
    24a0:	f9401341 	ldr	x1, [x26, #32]
    24a4:	8b170273 	add	x19, x19, x23
    24a8:	aa1503e0 	mov	x0, x21
    24ac:	94001fd9 	bl	a410 <randlc_>
    24b0:	6b1c029f 	cmp	w20, w28
    24b4:	54fffe4a 	b.ge	247c <zran3_._omp_fn.0+0xcc>  // b.tcont
    24b8:	f94037e0 	ldr	x0, [sp, #104]
    24bc:	91000718 	add	x24, x24, #0x1
    24c0:	8b000339 	add	x25, x25, x0
    24c4:	b94067e0 	ldr	w0, [sp, #100]
    24c8:	6b18001f 	cmp	w0, w24
    24cc:	54fffc2c 	b.gt	2450 <zran3_._omp_fn.0+0xa0>
    24d0:	a9425bf5 	ldp	x21, x22, [sp, #32]
    24d4:	a94363f7 	ldp	x23, x24, [sp, #48]
    24d8:	a94573fb 	ldp	x27, x28, [sp, #80]
    24dc:	a94153f3 	ldp	x19, x20, [sp, #16]
    24e0:	a9446bf9 	ldp	x25, x26, [sp, #64]
    24e4:	a8c97bfd 	ldp	x29, x30, [sp], #144
    24e8:	d65f03c0 	ret
    24ec:	11000442 	add	w2, w2, #0x1
    24f0:	52800001 	mov	w1, #0x0                   	// #0
    24f4:	17ffffbd 	b	23e8 <zran3_._omp_fn.0+0x38>
    24f8:	d503201f 	nop
    24fc:	d503201f 	nop

0000000000002500 <zero3_._omp_fn.0>:
    2500:	a9b97bfd 	stp	x29, x30, [sp, #-112]!
    2504:	910003fd 	mov	x29, sp
    2508:	a90153f3 	stp	x19, x20, [sp, #16]
    250c:	a90363f7 	stp	x23, x24, [sp, #48]
    2510:	29455017 	ldp	w23, w20, [x0, #40]
    2514:	710002ff 	cmp	w23, #0x0
    2518:	5400078d 	b.le	2608 <zero3_._omp_fn.0+0x108>
    251c:	7100029f 	cmp	w20, #0x0
    2520:	5400074d 	b.le	2608 <zero3_._omp_fn.0+0x108>
    2524:	1b147ef7 	mul	w23, w23, w20
    2528:	a9025bf5 	stp	x21, x22, [sp, #32]
    252c:	aa0003f6 	mov	x22, x0
    2530:	97fffc24 	bl	15c0 <omp_get_num_threads@plt>
    2534:	2a0003f5 	mov	w21, w0
    2538:	97fffc4a 	bl	1660 <omp_get_thread_num@plt>
    253c:	2a0003e1 	mov	w1, w0
    2540:	1ad50af3 	udiv	w19, w23, w21
    2544:	1b15de62 	msub	w2, w19, w21, w23
    2548:	6b02001f 	cmp	w0, w2
    254c:	54000703 	b.cc	262c <zero3_._omp_fn.0+0x12c>  // b.lo, b.ul, b.last
    2550:	1b010a61 	madd	w1, w19, w1, w2
    2554:	0b010260 	add	w0, w19, w1
    2558:	6b00003f 	cmp	w1, w0
    255c:	540005e2 	b.cs	2618 <zero3_._omp_fn.0+0x118>  // b.hs, b.nlast
    2560:	a9046bf9 	stp	x25, x26, [sp, #64]
    2564:	a94002d9 	ldp	x25, x0, [x22]
    2568:	a90573fb 	stp	x27, x28, [sp, #80]
    256c:	1ad4083a 	udiv	w26, w1, w20
    2570:	a9415ed8 	ldp	x24, x23, [x22, #16]
    2574:	b9400002 	ldr	w2, [x0]
    2578:	1b148741 	msub	w1, w26, w20, w1
    257c:	11000740 	add	w0, w26, #0x1
    2580:	b9006fe0 	str	w0, [sp, #108]
    2584:	1100043b 	add	w27, w1, #0x1
    2588:	f94012d6 	ldr	x22, [x22, #32]
    258c:	7100005f 	cmp	w2, #0x0
    2590:	5400036d 	b.le	25fc <zero3_._omp_fn.0+0xfc>
    2594:	51000673 	sub	w19, w19, #0x1
    2598:	937d7c5a 	sbfiz	x26, x2, #3, #32
    259c:	93407c15 	sxtw	x21, w0
    25a0:	5280001c 	mov	w28, #0x0                   	// #0
    25a4:	14000003 	b	25b0 <zero3_._omp_fn.0+0xb0>
    25a8:	1100079c 	add	w28, w28, #0x1
    25ac:	2a0003fb 	mov	w27, w0
    25b0:	93407f60 	sxtw	x0, w27
    25b4:	9b175aa3 	madd	x3, x21, x23, x22
    25b8:	aa1a03e2 	mov	x2, x26
    25bc:	52800001 	mov	w1, #0x0                   	// #0
    25c0:	9b180c00 	madd	x0, x0, x24, x3
    25c4:	91000400 	add	x0, x0, #0x1
    25c8:	8b000f20 	add	x0, x25, x0, lsl #3
    25cc:	97fffcad 	bl	1880 <memset@plt>
    25d0:	6b1c027f 	cmp	w19, w28
    25d4:	54000140 	b.eq	25fc <zero3_._omp_fn.0+0xfc>  // b.none
    25d8:	11000760 	add	w0, w27, #0x1
    25dc:	6b14037f 	cmp	w27, w20
    25e0:	54fffe4b 	b.lt	25a8 <zero3_._omp_fn.0+0xa8>  // b.tstop
    25e4:	b9406fe0 	ldr	w0, [sp, #108]
    25e8:	11000400 	add	w0, w0, #0x1
    25ec:	93407c15 	sxtw	x21, w0
    25f0:	52800020 	mov	w0, #0x1                   	// #1
    25f4:	b9006ff5 	str	w21, [sp, #108]
    25f8:	17ffffec 	b	25a8 <zero3_._omp_fn.0+0xa8>
    25fc:	a9425bf5 	ldp	x21, x22, [sp, #32]
    2600:	a9446bf9 	ldp	x25, x26, [sp, #64]
    2604:	a94573fb 	ldp	x27, x28, [sp, #80]
    2608:	a94153f3 	ldp	x19, x20, [sp, #16]
    260c:	a94363f7 	ldp	x23, x24, [sp, #48]
    2610:	a8c77bfd 	ldp	x29, x30, [sp], #112
    2614:	d65f03c0 	ret
    2618:	a94153f3 	ldp	x19, x20, [sp, #16]
    261c:	a9425bf5 	ldp	x21, x22, [sp, #32]
    2620:	a94363f7 	ldp	x23, x24, [sp, #48]
    2624:	a8c77bfd 	ldp	x29, x30, [sp], #112
    2628:	d65f03c0 	ret
    262c:	11000673 	add	w19, w19, #0x1
    2630:	52800002 	mov	w2, #0x0                   	// #0
    2634:	17ffffc7 	b	2550 <zero3_._omp_fn.0+0x50>
    2638:	d503201f 	nop
    263c:	d503201f 	nop

0000000000002640 <psinv_._omp_fn.0>:
    2640:	d282280c 	mov	x12, #0x1140                	// #4416
    2644:	cb2c63ff 	sub	sp, sp, x12
    2648:	a9007bfd 	stp	x29, x30, [sp]
    264c:	910003fd 	mov	x29, sp
    2650:	a90153f3 	stp	x19, x20, [sp, #16]
    2654:	aa0003f3 	mov	x19, x0
    2658:	b9405000 	ldr	w0, [x0, #80]
    265c:	b9405661 	ldr	w1, [x19, #84]
    2660:	b900e3e1 	str	w1, [sp, #224]
    2664:	7100041f 	cmp	w0, #0x1
    2668:	540025cd 	b.le	2b20 <psinv_._omp_fn.0+0x4e0>
    266c:	51000400 	sub	w0, w0, #0x1
    2670:	7100043f 	cmp	w1, #0x1
    2674:	5400256d 	b.le	2b20 <psinv_._omp_fn.0+0x4e0>
    2678:	a9025bf5 	stp	x21, x22, [sp, #32]
    267c:	51000436 	sub	w22, w1, #0x1
    2680:	1b167c15 	mul	w21, w0, w22
    2684:	97fffbcf 	bl	15c0 <omp_get_num_threads@plt>
    2688:	2a0003f4 	mov	w20, w0
    268c:	97fffbf5 	bl	1660 <omp_get_thread_num@plt>
    2690:	1ad40aa1 	udiv	w1, w21, w20
    2694:	1b14d422 	msub	w2, w1, w20, w21
    2698:	6b02001f 	cmp	w0, w2
    269c:	54002fa3 	b.cc	2c90 <psinv_._omp_fn.0+0x650>  // b.lo, b.ul, b.last
    26a0:	1b000820 	madd	w0, w1, w0, w2
    26a4:	0b000022 	add	w2, w1, w0
    26a8:	6b02001f 	cmp	w0, w2
    26ac:	54002442 	b.cs	2b34 <psinv_._omp_fn.0+0x4f4>  // b.hs, b.nlast
    26b0:	a9409272 	ldp	x18, x4, [x19, #8]
    26b4:	a9046bf9 	stp	x25, x26, [sp, #64]
    26b8:	51000421 	sub	w1, w1, #0x1
    26bc:	1ad60802 	udiv	w2, w0, w22
    26c0:	b9009fe1 	str	w1, [sp, #156]
    26c4:	a9422e6a 	ldp	x10, x11, [x19, #32]
    26c8:	a90573fb 	stp	x27, x28, [sp, #80]
    26cc:	b940009a 	ldr	w26, [x4]
    26d0:	1b168040 	msub	w0, w2, w22, w0
    26d4:	a90363f7 	stp	x23, x24, [sp, #48]
    26d8:	51000b47 	sub	w7, w26, #0x2
    26dc:	53017f41 	lsr	w1, w26, #1
    26e0:	121f78e6 	and	w6, w7, #0xfffffffe
    26e4:	51000421 	sub	w1, w1, #0x1
    26e8:	110004c4 	add	w4, w6, #0x1
    26ec:	91000421 	add	x1, x1, #0x1
    26f0:	110008db 	add	w27, w6, #0x2
    26f4:	11000800 	add	w0, w0, #0x2
    26f8:	11000cc8 	add	w8, w6, #0x3
    26fc:	d37cec21 	lsl	x1, x1, #4
    2700:	53017ce5 	lsr	w5, w7, #1
    2704:	291e1fe6 	stp	w6, w7, [sp, #240]
    2708:	51001746 	sub	w6, w26, #0x5
    270c:	93407c89 	sxtw	x9, w4
    2710:	510004a5 	sub	w5, w5, #0x1
    2714:	121f78c6 	and	w6, w6, #0xfffffffe
    2718:	b90077e0 	str	w0, [sp, #116]
    271c:	11000840 	add	w0, w2, #0x2
    2720:	f9006fe1 	str	x1, [sp, #216]
    2724:	910008e1 	add	x1, x7, #0x2
    2728:	910004a5 	add	x5, x5, #0x1
    272c:	f9400e64 	ldr	x4, [x19, #24]
    2730:	b9009be0 	str	w0, [sp, #152]
    2734:	d37ff960 	lsl	x0, x11, #1
    2738:	a90c07e0 	stp	x0, x1, [sp, #192]
    273c:	110010c1 	add	w1, w6, #0x4
    2740:	d37ff940 	lsl	x0, x10, #1
    2744:	b900ffe1 	str	w1, [sp, #252]
    2748:	121f7b41 	and	w1, w26, #0xfffffffe
    274c:	d37ceca5 	lsl	x5, x5, #4
    2750:	f9005fe0 	str	x0, [sp, #184]
    2754:	91006080 	add	x0, x4, #0x18
    2758:	b900e7e1 	str	w1, [sp, #228]
    275c:	32000341 	orr	w1, w26, #0x1
    2760:	f90037e9 	str	x9, [sp, #104]
    2764:	d100053c 	sub	x28, x9, #0x1
    2768:	a9082beb 	stp	x11, x10, [sp, #128]
    276c:	93407f76 	sxtw	x22, w27
    2770:	910403e3 	add	x3, sp, #0x100
    2774:	b90093ff 	str	wzr, [sp, #144]
    2778:	912483ee 	add	x14, sp, #0x920
    277c:	f9006be0 	str	x0, [sp, #208]
    2780:	d37df39c 	lsl	x28, x28, #3
    2784:	f90077e5 	str	x5, [sp, #232]
    2788:	93407d05 	sxtw	x5, w8
    278c:	f90033e5 	str	x5, [sp, #96]
    2790:	d37df137 	lsl	x23, x9, #3
    2794:	b900fbe1 	str	w1, [sp, #248]
    2798:	937d7f7b 	sbfiz	x27, x27, #3, #32
    279c:	f9400261 	ldr	x1, [x19]
    27a0:	f9401a60 	ldr	x0, [x19, #48]
    27a4:	f9003fe0 	str	x0, [sp, #120]
    27a8:	f9401e60 	ldr	x0, [x19, #56]
    27ac:	f9005be0 	str	x0, [sp, #176]
    27b0:	f9402260 	ldr	x0, [x19, #64]
    27b4:	f90057e0 	str	x0, [sp, #168]
    27b8:	f9402660 	ldr	x0, [x19, #72]
    27bc:	f90053e0 	str	x0, [sp, #160]
    27c0:	7100035f 	cmp	w26, #0x0
    27c4:	540018ad 	b.le	2ad8 <psinv_._omp_fn.0+0x498>
    27c8:	b94077e0 	ldr	w0, [sp, #116]
    27cc:	b9809be5 	ldrsw	x5, [sp, #152]
    27d0:	51000406 	sub	w6, w0, #0x1
    27d4:	a94783e7 	ldp	x7, x0, [sp, #120]
    27d8:	93407cc6 	sxtw	x6, w6
    27dc:	f94047e8 	ldr	x8, [sp, #136]
    27e0:	9b007ca2 	mul	x2, x5, x0
    27e4:	9b087cc6 	mul	x6, x6, x8
    27e8:	cb00004f 	sub	x15, x2, x0
    27ec:	8b0200e2 	add	x2, x7, x2
    27f0:	f94063e0 	ldr	x0, [sp, #192]
    27f4:	8b0f0010 	add	x16, x0, x15
    27f8:	8b0f00ef 	add	x15, x7, x15
    27fc:	f9405fe0 	ldr	x0, [sp, #184]
    2800:	8b1000f0 	add	x16, x7, x16
    2804:	8b1000ca 	add	x10, x6, x16
    2808:	8b0f00cc 	add	x12, x6, x15
    280c:	8b060000 	add	x0, x0, x6
    2810:	cb080011 	sub	x17, x0, x8
    2814:	8b000047 	add	x7, x2, x0
    2818:	8b1101eb 	add	x11, x15, x17
    281c:	8b100229 	add	x9, x17, x16
    2820:	8b100008 	add	x8, x0, x16
    2824:	8b060042 	add	x2, x2, x6
    2828:	8b0f000d 	add	x13, x0, x15
    282c:	7100075f 	cmp	w26, #0x1
    2830:	540022c0 	b.eq	2c88 <psinv_._omp_fn.0+0x648>  // b.none
    2834:	91000400 	add	x0, x0, #0x1
    2838:	91000631 	add	x17, x17, #0x1
    283c:	910004c6 	add	x6, x6, #0x1
    2840:	8b1101fe 	add	x30, x15, x17
    2844:	8b0601f9 	add	x25, x15, x6
    2848:	8b110211 	add	x17, x16, x17
    284c:	8b0001ef 	add	x15, x15, x0
    2850:	8b060206 	add	x6, x16, x6
    2854:	91000458 	add	x24, x2, #0x1
    2858:	8b000210 	add	x16, x16, x0
    285c:	910004f5 	add	x21, x7, #0x1
    2860:	b90097fa 	str	w26, [sp, #148]
    2864:	f9406ffa 	ldr	x26, [sp, #216]
    2868:	8b1e0c3e 	add	x30, x1, x30, lsl #3
    286c:	8b110c31 	add	x17, x1, x17, lsl #3
    2870:	8b190c39 	add	x25, x1, x25, lsl #3
    2874:	8b0f0c2f 	add	x15, x1, x15, lsl #3
    2878:	8b060c26 	add	x6, x1, x6, lsl #3
    287c:	8b100c30 	add	x16, x1, x16, lsl #3
    2880:	8b180c38 	add	x24, x1, x24, lsl #3
    2884:	8b150c35 	add	x21, x1, x21, lsl #3
    2888:	aa0e03f4 	mov	x20, x14
    288c:	aa0303f3 	mov	x19, x3
    2890:	d2800000 	mov	x0, #0x0                   	// #0
    2894:	d503201f 	nop
    2898:	3ce06b01 	ldr	q1, [x24, x0]
    289c:	3ce06aa0 	ldr	q0, [x21, x0]
    28a0:	3ce06bc2 	ldr	q2, [x30, x0]
    28a4:	4e61d400 	fadd	v0.2d, v0.2d, v1.2d
    28a8:	3ce06a21 	ldr	q1, [x17, x0]
    28ac:	4e62d400 	fadd	v0.2d, v0.2d, v2.2d
    28b0:	4e61d400 	fadd	v0.2d, v0.2d, v1.2d
    28b4:	3c810660 	str	q0, [x19], #16
    28b8:	3ce06b21 	ldr	q1, [x25, x0]
    28bc:	3ce069e0 	ldr	q0, [x15, x0]
    28c0:	3ce068c2 	ldr	q2, [x6, x0]
    28c4:	4e61d400 	fadd	v0.2d, v0.2d, v1.2d
    28c8:	3ce06a01 	ldr	q1, [x16, x0]
    28cc:	91004000 	add	x0, x0, #0x10
    28d0:	4e62d400 	fadd	v0.2d, v0.2d, v2.2d
    28d4:	4e61d400 	fadd	v0.2d, v0.2d, v1.2d
    28d8:	3c810680 	str	q0, [x20], #16
    28dc:	eb1a001f 	cmp	x0, x26
    28e0:	54fffdc1 	b.ne	2898 <psinv_._omp_fn.0+0x258>  // b.any
    28e4:	b94097fa 	ldr	w26, [sp, #148]
    28e8:	b940e7e0 	ldr	w0, [sp, #228]
    28ec:	6b1a001f 	cmp	w0, w26
    28f0:	54000380 	b.eq	2960 <psinv_._omp_fn.0+0x320>  // b.none
    28f4:	b940fbe0 	ldr	w0, [sp, #248]
    28f8:	93407c00 	sxtw	x0, w0
    28fc:	8b0000e7 	add	x7, x7, x0
    2900:	8b000042 	add	x2, x2, x0
    2904:	8b0001ad 	add	x13, x13, x0
    2908:	8b00018c 	add	x12, x12, x0
    290c:	8b00016b 	add	x11, x11, x0
    2910:	8b00014a 	add	x10, x10, x0
    2914:	fc627823 	ldr	d3, [x1, x2, lsl #3]
    2918:	8b000129 	add	x9, x9, x0
    291c:	fc6c7822 	ldr	d2, [x1, x12, lsl #3]
    2920:	8b000108 	add	x8, x8, x0
    2924:	fc677821 	ldr	d1, [x1, x7, lsl #3]
    2928:	d1000400 	sub	x0, x0, #0x1
    292c:	fc6d7820 	ldr	d0, [x1, x13, lsl #3]
    2930:	fc6b7825 	ldr	d5, [x1, x11, lsl #3]
    2934:	1e632821 	fadd	d1, d1, d3
    2938:	fc6a7824 	ldr	d4, [x1, x10, lsl #3]
    293c:	1e622800 	fadd	d0, d0, d2
    2940:	fc697823 	ldr	d3, [x1, x9, lsl #3]
    2944:	fc687822 	ldr	d2, [x1, x8, lsl #3]
    2948:	1e652821 	fadd	d1, d1, d5
    294c:	1e642800 	fadd	d0, d0, d4
    2950:	1e632821 	fadd	d1, d1, d3
    2954:	1e622800 	fadd	d0, d0, d2
    2958:	fc207861 	str	d1, [x3, x0, lsl #3]
    295c:	fc2079c0 	str	d0, [x14, x0, lsl #3]
    2960:	71000b5f 	cmp	w26, #0x2
    2964:	54000bad 	b.le	2ad8 <psinv_._omp_fn.0+0x498>
    2968:	a94a0be9 	ldp	x9, x2, [sp, #160]
    296c:	b98077e0 	ldrsw	x0, [sp, #116]
    2970:	f94047eb 	ldr	x11, [sp, #136]
    2974:	f9403fea 	ldr	x10, [sp, #120]
    2978:	9b057c47 	mul	x7, x2, x5
    297c:	f94043e2 	ldr	x2, [sp, #128]
    2980:	8b070126 	add	x6, x9, x7
    2984:	9b057c45 	mul	x5, x2, x5
    2988:	f9405be2 	ldr	x2, [sp, #176]
    298c:	9b007c48 	mul	x8, x2, x0
    2990:	8b050142 	add	x2, x10, x5
    2994:	9b007d60 	mul	x0, x11, x0
    2998:	8b070107 	add	x7, x8, x7
    299c:	8b0800c6 	add	x6, x6, x8
    29a0:	8b050005 	add	x5, x0, x5
    29a4:	8b0900e9 	add	x9, x7, x9
    29a8:	8b000042 	add	x2, x2, x0
    29ac:	8b0a00a7 	add	x7, x5, x10
    29b0:	a94c83e5 	ldp	x5, x0, [sp, #200]
    29b4:	910008e7 	add	x7, x7, #0x2
    29b8:	d37df0e7 	lsl	x7, x7, #3
    29bc:	8b07002b 	add	x11, x1, x7
    29c0:	8b0900a8 	add	x8, x5, x9
    29c4:	91000925 	add	x5, x9, #0x2
    29c8:	8b080e48 	add	x8, x18, x8, lsl #3
    29cc:	8b050e45 	add	x5, x18, x5, lsl #3
    29d0:	eb08009f 	cmp	x4, x8
    29d4:	fa453000 	ccmp	x0, x5, #0x0, cc  // cc = lo, ul, last
    29d8:	cb0b00a0 	sub	x0, x5, x11
    29dc:	fa509800 	ccmp	x0, #0x10, #0x0, ls  // ls = plast
    29e0:	7a438b44 	ccmp	w26, #0x3, #0x4, hi  // hi = pmore
    29e4:	54000b40 	b.eq	2b4c <psinv_._omp_fn.0+0x50c>  // b.none
    29e8:	6d409887 	ldp	d7, d6, [x4, #8]
    29ec:	d10020ea 	sub	x10, x7, #0x8
    29f0:	910020e7 	add	x7, x7, #0x8
    29f4:	8b0a002a 	add	x10, x1, x10
    29f8:	f94077ec 	ldr	x12, [sp, #232]
    29fc:	8b070027 	add	x7, x1, x7
    2a00:	4e0804e7 	dup	v7.2d, v7.d[0]
    2a04:	4d40cc90 	ld1r	{v16.2d}, [x4]
    2a08:	4e0804c6 	dup	v6.2d, v6.d[0]
    2a0c:	d2800000 	mov	x0, #0x0                   	// #0
    2a10:	3dc043e3 	ldr	q3, [sp, #256]
    2a14:	d503201f 	nop
    2a18:	8b000068 	add	x8, x3, x0
    2a1c:	3ce06940 	ldr	q0, [x10, x0]
    2a20:	8b0001c9 	add	x9, x14, x0
    2a24:	3ce068e2 	ldr	q2, [x7, x0]
    2a28:	3ce06965 	ldr	q5, [x11, x0]
    2a2c:	4e60d442 	fadd	v2.2d, v2.2d, v0.2d
    2a30:	3ce068a0 	ldr	q0, [x5, x0]
    2a34:	3cc08104 	ldur	q4, [x8, #8]
    2a38:	3cc08121 	ldur	q1, [x9, #8]
    2a3c:	4e70cca0 	fmla	v0.2d, v5.2d, v16.2d
    2a40:	4e64d442 	fadd	v2.2d, v2.2d, v4.2d
    2a44:	4e63d421 	fadd	v1.2d, v1.2d, v3.2d
    2a48:	3dc00503 	ldr	q3, [x8, #16]
    2a4c:	4e67cc40 	fmla	v0.2d, v2.2d, v7.2d
    2a50:	4e61d461 	fadd	v1.2d, v3.2d, v1.2d
    2a54:	4e66cc20 	fmla	v0.2d, v1.2d, v6.2d
    2a58:	3ca068a0 	str	q0, [x5, x0]
    2a5c:	91004000 	add	x0, x0, #0x10
    2a60:	eb0c001f 	cmp	x0, x12
    2a64:	54fffda1 	b.ne	2a18 <psinv_._omp_fn.0+0x3d8>  // b.any
    2a68:	295e17e0 	ldp	w0, w5, [sp, #240]
    2a6c:	6b05001f 	cmp	w0, w5
    2a70:	54000340 	b.eq	2ad8 <psinv_._omp_fn.0+0x498>  // b.none
    2a74:	f94033e0 	ldr	x0, [sp, #96]
    2a78:	8b1600c6 	add	x6, x6, x22
    2a7c:	fd400084 	ldr	d4, [x4]
    2a80:	8b000045 	add	x5, x2, x0
    2a84:	fc776865 	ldr	d5, [x3, x23]
    2a88:	f94037e0 	ldr	x0, [sp, #104]
    2a8c:	fc657822 	ldr	d2, [x1, x5, lsl #3]
    2a90:	8b000040 	add	x0, x2, x0
    2a94:	8b160042 	add	x2, x2, x22
    2a98:	fc7769c3 	ldr	d3, [x14, x23]
    2a9c:	fc7c6861 	ldr	d1, [x3, x28]
    2aa0:	fc607820 	ldr	d0, [x1, x0, lsl #3]
    2aa4:	fc627826 	ldr	d6, [x1, x2, lsl #3]
    2aa8:	1e632821 	fadd	d1, d1, d3
    2aac:	fd400883 	ldr	d3, [x4, #16]
    2ab0:	1e602842 	fadd	d2, d2, d0
    2ab4:	fc667a40 	ldr	d0, [x18, x6, lsl #3]
    2ab8:	1f4400c0 	fmadd	d0, d6, d4, d0
    2abc:	fc7b6864 	ldr	d4, [x3, x27]
    2ac0:	1e652842 	fadd	d2, d2, d5
    2ac4:	fd400485 	ldr	d5, [x4, #8]
    2ac8:	1e642821 	fadd	d1, d1, d4
    2acc:	1f450040 	fmadd	d0, d2, d5, d0
    2ad0:	1f430020 	fmadd	d0, d1, d3, d0
    2ad4:	fc267a40 	str	d0, [x18, x6, lsl #3]
    2ad8:	b94093e2 	ldr	w2, [sp, #144]
    2adc:	b9409fe0 	ldr	w0, [sp, #156]
    2ae0:	6b02001f 	cmp	w0, w2
    2ae4:	54000160 	b.eq	2b10 <psinv_._omp_fn.0+0x4d0>  // b.none
    2ae8:	b94077e2 	ldr	w2, [sp, #116]
    2aec:	b940e3e5 	ldr	w5, [sp, #224]
    2af0:	11000440 	add	w0, w2, #0x1
    2af4:	6b05005f 	cmp	w2, w5
    2af8:	54000bea 	b.ge	2c74 <psinv_._omp_fn.0+0x634>  // b.tcont
    2afc:	b94093e2 	ldr	w2, [sp, #144]
    2b00:	b90077e0 	str	w0, [sp, #116]
    2b04:	11000442 	add	w2, w2, #0x1
    2b08:	b90093e2 	str	w2, [sp, #144]
    2b0c:	17ffff2d 	b	27c0 <psinv_._omp_fn.0+0x180>
    2b10:	a9425bf5 	ldp	x21, x22, [sp, #32]
    2b14:	a94363f7 	ldp	x23, x24, [sp, #48]
    2b18:	a9446bf9 	ldp	x25, x26, [sp, #64]
    2b1c:	a94573fb 	ldp	x27, x28, [sp, #80]
    2b20:	d282280c 	mov	x12, #0x1140                	// #4416
    2b24:	a9407bfd 	ldp	x29, x30, [sp]
    2b28:	a94153f3 	ldp	x19, x20, [sp, #16]
    2b2c:	8b2c63ff 	add	sp, sp, x12
    2b30:	d65f03c0 	ret
    2b34:	d282280c 	mov	x12, #0x1140                	// #4416
    2b38:	a9407bfd 	ldp	x29, x30, [sp]
    2b3c:	a94153f3 	ldp	x19, x20, [sp, #16]
    2b40:	a9425bf5 	ldp	x21, x22, [sp, #32]
    2b44:	8b2c63ff 	add	sp, sp, x12
    2b48:	d65f03c0 	ret
    2b4c:	d37df0c6 	lsl	x6, x6, #3
    2b50:	7100135f 	cmp	w26, #0x4
    2b54:	54000a4d 	b.le	2c9c <psinv_._omp_fn.0+0x65c>
    2b58:	6d5017e6 	ldp	d6, d5, [sp, #256]
    2b5c:	8b020c25 	add	x5, x1, x2, lsl #3
    2b60:	8b060247 	add	x7, x18, x6
    2b64:	9124a3e9 	add	x9, sp, #0x928
    2b68:	91004068 	add	x8, x3, #0x10
    2b6c:	52800040 	mov	w0, #0x2                   	// #2
    2b70:	6d4088a1 	ldp	d1, d2, [x5, #8]
    2b74:	11000800 	add	w0, w0, #0x2
    2b78:	6d404080 	ldp	d0, d16, [x4]
    2b7c:	910040e7 	add	x7, x7, #0x10
    2b80:	fd400ca4 	ldr	d4, [x5, #24]
    2b84:	fd400887 	ldr	d7, [x4, #16]
    2b88:	b940ffea 	ldr	w10, [sp, #252]
    2b8c:	1e612884 	fadd	d4, d4, d1
    2b90:	fd4000e1 	ldr	d1, [x7]
    2b94:	1f400441 	fmadd	d1, d2, d0, d1
    2b98:	fd4004e0 	ldr	d0, [x7, #8]
    2b9c:	6d400923 	ldp	d3, d2, [x9]
    2ba0:	91004129 	add	x9, x9, #0x10
    2ba4:	1e652884 	fadd	d4, d4, d5
    2ba8:	1e6328c3 	fadd	d3, d6, d3
    2bac:	1e6228a2 	fadd	d2, d5, d2
    2bb0:	6d401506 	ldp	d6, d5, [x8]
    2bb4:	1f500481 	fmadd	d1, d4, d16, d1
    2bb8:	91004108 	add	x8, x8, #0x10
    2bbc:	1e6328c3 	fadd	d3, d6, d3
    2bc0:	1e6228a2 	fadd	d2, d5, d2
    2bc4:	1f470461 	fmadd	d1, d3, d7, d1
    2bc8:	fd0000e1 	str	d1, [x7]
    2bcc:	6d4184a7 	ldp	d7, d1, [x5, #24]
    2bd0:	fc410ca3 	ldr	d3, [x5, #16]!
    2bd4:	6d401090 	ldp	d16, d4, [x4]
    2bd8:	1e632821 	fadd	d1, d1, d3
    2bdc:	fd400883 	ldr	d3, [x4, #16]
    2be0:	1f470200 	fmadd	d0, d16, d7, d0
    2be4:	1e662821 	fadd	d1, d1, d6
    2be8:	1f410080 	fmadd	d0, d4, d1, d0
    2bec:	1f430040 	fmadd	d0, d2, d3, d0
    2bf0:	fd0004e0 	str	d0, [x7, #8]
    2bf4:	6b00015f 	cmp	w10, w0
    2bf8:	54fffbc1 	b.ne	2b70 <psinv_._omp_fn.0+0x530>  // b.any
    2bfc:	93407c00 	sxtw	x0, w0
    2c00:	8b060246 	add	x6, x18, x6
    2c04:	8b000042 	add	x2, x2, x0
    2c08:	d37df007 	lsl	x7, x0, #3
    2c0c:	8b020c22 	add	x2, x1, x2, lsl #3
    2c10:	8b070065 	add	x5, x3, x7
    2c14:	14000002 	b	2c1c <psinv_._omp_fn.0+0x5dc>
    2c18:	d37df007 	lsl	x7, x0, #3
    2c1c:	6d7f9042 	ldp	d2, d4, [x2, #-8]
    2c20:	8b0701c7 	add	x7, x14, x7
    2c24:	fc408c40 	ldr	d0, [x2, #8]!
    2c28:	6d7f0ca5 	ldp	d5, d3, [x5, #-16]
    2c2c:	1e602842 	fadd	d2, d2, d0
    2c30:	fc5f80e1 	ldur	d1, [x7, #-8]
    2c34:	fd400086 	ldr	d6, [x4]
    2c38:	fc6078c0 	ldr	d0, [x6, x0, lsl #3]
    2c3c:	1e652821 	fadd	d1, d1, d5
    2c40:	fc4084a5 	ldr	d5, [x5], #8
    2c44:	1f4400c0 	fmadd	d0, d6, d4, d0
    2c48:	1e632842 	fadd	d2, d2, d3
    2c4c:	fd400484 	ldr	d4, [x4, #8]
    2c50:	fd400883 	ldr	d3, [x4, #16]
    2c54:	1e652821 	fadd	d1, d1, d5
    2c58:	1f420080 	fmadd	d0, d4, d2, d0
    2c5c:	1f410060 	fmadd	d0, d3, d1, d0
    2c60:	fc2078c0 	str	d0, [x6, x0, lsl #3]
    2c64:	91000400 	add	x0, x0, #0x1
    2c68:	6b00035f 	cmp	w26, w0
    2c6c:	54fffd6c 	b.gt	2c18 <psinv_._omp_fn.0+0x5d8>
    2c70:	17ffff9a 	b	2ad8 <psinv_._omp_fn.0+0x498>
    2c74:	b9409be0 	ldr	w0, [sp, #152]
    2c78:	11000400 	add	w0, w0, #0x1
    2c7c:	b9009be0 	str	w0, [sp, #152]
    2c80:	52800040 	mov	w0, #0x2                   	// #2
    2c84:	17ffff9e 	b	2afc <psinv_._omp_fn.0+0x4bc>
    2c88:	2a1a03e0 	mov	w0, w26
    2c8c:	17ffff1b 	b	28f8 <psinv_._omp_fn.0+0x2b8>
    2c90:	11000421 	add	w1, w1, #0x1
    2c94:	52800002 	mov	w2, #0x0                   	// #0
    2c98:	17fffe82 	b	26a0 <psinv_._omp_fn.0+0x60>
    2c9c:	52800040 	mov	w0, #0x2                   	// #2
    2ca0:	17ffffd7 	b	2bfc <psinv_._omp_fn.0+0x5bc>

0000000000002ca4 <interp_._omp_fn.0>:
    2ca4:	d283260c 	mov	x12, #0x1930                	// #6448
    2ca8:	cb2c63ff 	sub	sp, sp, x12
    2cac:	a9007bfd 	stp	x29, x30, [sp]
    2cb0:	910003fd 	mov	x29, sp
    2cb4:	a90153f3 	stp	x19, x20, [sp, #16]
    2cb8:	a90573fb 	stp	x27, x28, [sp, #80]
    2cbc:	aa0003fb 	mov	x27, x0
    2cc0:	29490014 	ldp	w20, w0, [x0, #72]
    2cc4:	b9009fe0 	str	w0, [sp, #156]
    2cc8:	7100029f 	cmp	w20, #0x0
    2ccc:	54002eed 	b.le	32a8 <interp_._omp_fn.0+0x604>
    2cd0:	7100001f 	cmp	w0, #0x0
    2cd4:	54002ead 	b.le	32a8 <interp_._omp_fn.0+0x604>
    2cd8:	1b007e94 	mul	w20, w20, w0
    2cdc:	97fffa39 	bl	15c0 <omp_get_num_threads@plt>
    2ce0:	2a0003f3 	mov	w19, w0
    2ce4:	97fffa5f 	bl	1660 <omp_get_thread_num@plt>
    2ce8:	1ad30a81 	udiv	w1, w20, w19
    2cec:	1b13d022 	msub	w2, w1, w19, w20
    2cf0:	6b02001f 	cmp	w0, w2
    2cf4:	540033a3 	b.cc	3368 <interp_._omp_fn.0+0x6c4>  // b.lo, b.ul, b.last
    2cf8:	1b000820 	madd	w0, w1, w0, w2
    2cfc:	0b000022 	add	w2, w1, w0
    2d00:	6b02001f 	cmp	w0, w2
    2d04:	54002d22 	b.cs	32a8 <interp_._omp_fn.0+0x604>  // b.hs, b.nlast
    2d08:	b9409fe9 	ldr	w9, [sp, #156]
    2d0c:	d2822202 	mov	x2, #0x1110                	// #4368
    2d10:	a9424f74 	ldp	x20, x19, [x27, #32]
    2d14:	51000421 	sub	w1, w1, #0x1
    2d18:	a9046bf9 	stp	x25, x26, [sp, #64]
    2d1c:	910343e6 	add	x6, sp, #0xd0
    2d20:	9123c3e5 	add	x5, sp, #0x8f0
    2d24:	1ac90804 	udiv	w4, w0, w9
    2d28:	b900a3e1 	str	w1, [sp, #160]
    2d2c:	f9400b61 	ldr	x1, [x27, #16]
    2d30:	a90363f7 	stp	x23, x24, [sp, #48]
    2d34:	1e6c1002 	fmov	d2, #5.000000000000000000e-01
    2d38:	1b098080 	msub	w0, w4, w9, w0
    2d3c:	a9025bf5 	stp	x21, x22, [sp, #32]
    2d40:	1e6a1003 	fmov	d3, #2.500000000000000000e-01
    2d44:	1100041e 	add	w30, w0, #0x1
    2d48:	11000480 	add	w0, w4, #0x1
    2d4c:	8b2263e4 	add	x4, sp, x2
    2d50:	290e03ff 	stp	wzr, w0, [sp, #112]
    2d54:	f9400762 	ldr	x2, [x27, #8]
    2d58:	91000660 	add	x0, x19, #0x1
    2d5c:	f9004be0 	str	x0, [sp, #144]
    2d60:	91004020 	add	x0, x1, #0x10
    2d64:	f90067e0 	str	x0, [sp, #200]
    2d68:	1e681006 	fmov	d6, #1.250000000000000000e-01
    2d6c:	b9400043 	ldr	w3, [x2]
    2d70:	f9400f60 	ldr	x0, [x27, #24]
    2d74:	5100047c 	sub	w28, w3, #0x1
    2d78:	51000467 	sub	w7, w3, #0x1
    2d7c:	121f7b88 	and	w8, w28, #0xfffffffe
    2d80:	53017f82 	lsr	w2, w28, #1
    2d84:	11000917 	add	w23, w8, #0x2
    2d88:	51000442 	sub	w2, w2, #0x1
    2d8c:	d37ff8e9 	lsl	x9, x7, #1
    2d90:	91000459 	add	x25, x2, #0x1
    2d94:	b90067e8 	str	w8, [sp, #100]
    2d98:	d37be842 	lsl	x2, x2, #5
    2d9c:	51000868 	sub	w8, w3, #0x2
    2da0:	91008042 	add	x2, x2, #0x20
    2da4:	f90037e2 	str	x2, [sp, #104]
    2da8:	91000522 	add	x2, x9, #0x1
    2dac:	f90057e2 	str	x2, [sp, #168]
    2db0:	910008e2 	add	x2, x7, #0x2
    2db4:	3200038a 	orr	w10, w28, #0x1
    2db8:	f9005be2 	str	x2, [sp, #176]
    2dbc:	d37ff902 	lsl	x2, x8, #1
    2dc0:	53017c75 	lsr	w21, w3, #1
    2dc4:	f90063e2 	str	x2, [sp, #192]
    2dc8:	121f7862 	and	w2, w3, #0xfffffffe
    2dcc:	531f7956 	lsl	w22, w10, #1
    2dd0:	510006b5 	sub	w21, w21, #0x1
    2dd4:	f90047e0 	str	x0, [sp, #136]
    2dd8:	b900bbe2 	str	w2, [sp, #184]
    2ddc:	32000062 	orr	w2, w3, #0x1
    2de0:	f9401b60 	ldr	x0, [x27, #48]
    2de4:	510006d8 	sub	w24, w22, #0x1
    2de8:	910006b5 	add	x21, x21, #0x1
    2dec:	f90043e0 	str	x0, [sp, #128]
    2df0:	b9009bea 	str	w10, [sp, #152]
    2df4:	93407f18 	sxtw	x24, w24
    2df8:	b900bfe2 	str	w2, [sp, #188]
    2dfc:	51000862 	sub	w2, w3, #0x2
    2e00:	b900a7e2 	str	w2, [sp, #164]
    2e04:	93407ed6 	sxtw	x22, w22
    2e08:	f9401f60 	ldr	x0, [x27, #56]
    2e0c:	d37cef39 	lsl	x25, x25, #4
    2e10:	6f03f405 	fmov	v5.2d, #5.000000000000000000e-01
    2e14:	93407ef7 	sxtw	x23, w23
    2e18:	6f02f604 	fmov	v4.2d, #2.500000000000000000e-01
    2e1c:	d37ceeb5 	lsl	x21, x21, #4
    2e20:	6f02f407 	fmov	v7.2d, #1.250000000000000000e-01
    2e24:	93407d5a 	sxtw	x26, w10
    2e28:	f9400362 	ldr	x2, [x27]
    2e2c:	f9003fe0 	str	x0, [sp, #120]
    2e30:	f940237b 	ldr	x27, [x27, #64]
    2e34:	d503201f 	nop
    2e38:	7100007f 	cmp	w3, #0x0
    2e3c:	5400216d 	b.le	3268 <interp_._omp_fn.0+0x5c4>
    2e40:	a9479fe0 	ldp	x0, x7, [sp, #120]
    2e44:	110007c8 	add	w8, w30, #0x1
    2e48:	b98077ed 	ldrsw	x13, [sp, #116]
    2e4c:	93407d08 	sxtw	x8, w8
    2e50:	9b007dac 	mul	x12, x13, x0
    2e54:	9b077d08 	mul	x8, x8, x7
    2e58:	8b0c0000 	add	x0, x0, x12
    2e5c:	8b0c036c 	add	x12, x27, x12
    2e60:	cb07010e 	sub	x14, x8, x7
    2e64:	8b000360 	add	x0, x27, x0
    2e68:	8b000109 	add	x9, x8, x0
    2e6c:	8b0e018b 	add	x11, x12, x14
    2e70:	8b0001ca 	add	x10, x14, x0
    2e74:	8b080187 	add	x7, x12, x8
    2e78:	7100047f 	cmp	w3, #0x1
    2e7c:	54002720 	b.eq	3360 <interp_._omp_fn.0+0x6bc>  // b.none
    2e80:	910005ce 	add	x14, x14, #0x1
    2e84:	91000508 	add	x8, x8, #0x1
    2e88:	8b0c01cc 	add	x12, x14, x12
    2e8c:	8b000108 	add	x8, x8, x0
    2e90:	8b0001ce 	add	x14, x14, x0
    2e94:	910004f2 	add	x18, x7, #0x1
    2e98:	8b0c0c4c 	add	x12, x2, x12, lsl #3
    2e9c:	8b080c48 	add	x8, x2, x8, lsl #3
    2ea0:	8b0e0c4e 	add	x14, x2, x14, lsl #3
    2ea4:	8b120c52 	add	x18, x2, x18, lsl #3
    2ea8:	aa0403f1 	mov	x17, x4
    2eac:	aa0503f0 	mov	x16, x5
    2eb0:	aa0603ef 	mov	x15, x6
    2eb4:	d2800000 	mov	x0, #0x0                   	// #0
    2eb8:	3ce06980 	ldr	q0, [x12, x0]
    2ebc:	3ce06a41 	ldr	q1, [x18, x0]
    2ec0:	4e60d421 	fadd	v1.2d, v1.2d, v0.2d
    2ec4:	3c810621 	str	q1, [x17], #16
    2ec8:	3ce069d0 	ldr	q16, [x14, x0]
    2ecc:	4e70d400 	fadd	v0.2d, v0.2d, v16.2d
    2ed0:	3c810600 	str	q0, [x16], #16
    2ed4:	3ce06900 	ldr	q0, [x8, x0]
    2ed8:	91004000 	add	x0, x0, #0x10
    2edc:	4e70d400 	fadd	v0.2d, v0.2d, v16.2d
    2ee0:	4e61d400 	fadd	v0.2d, v0.2d, v1.2d
    2ee4:	3c8105e0 	str	q0, [x15], #16
    2ee8:	eb0002bf 	cmp	x21, x0
    2eec:	54fffe61 	b.ne	2eb8 <interp_._omp_fn.0+0x214>  // b.any
    2ef0:	b940bbe0 	ldr	w0, [sp, #184]
    2ef4:	6b00007f 	cmp	w3, w0
    2ef8:	540002a0 	b.eq	2f4c <interp_._omp_fn.0+0x2a8>  // b.none
    2efc:	b940bfe0 	ldr	w0, [sp, #188]
    2f00:	93407c00 	sxtw	x0, w0
    2f04:	8b00016b 	add	x11, x11, x0
    2f08:	8b0000e7 	add	x7, x7, x0
    2f0c:	8b00014a 	add	x10, x10, x0
    2f10:	8b000129 	add	x9, x9, x0
    2f14:	d1000400 	sub	x0, x0, #0x1
    2f18:	fc6b7841 	ldr	d1, [x2, x11, lsl #3]
    2f1c:	fc6a7840 	ldr	d0, [x2, x10, lsl #3]
    2f20:	fc677852 	ldr	d18, [x2, x7, lsl #3]
    2f24:	fc697851 	ldr	d17, [x2, x9, lsl #3]
    2f28:	1e602830 	fadd	d16, d1, d0
    2f2c:	1e722821 	fadd	d1, d1, d18
    2f30:	1e712800 	fadd	d0, d0, d17
    2f34:	fc2078b0 	str	d16, [x5, x0, lsl #3]
    2f38:	fc207881 	str	d1, [x4, x0, lsl #3]
    2f3c:	1e612800 	fadd	d0, d0, d1
    2f40:	fc2078c0 	str	d0, [x6, x0, lsl #3]
    2f44:	7100047f 	cmp	w3, #0x1
    2f48:	5400190d 	b.le	3268 <interp_._omp_fn.0+0x5c4>
    2f4c:	a947abe9 	ldp	x9, x10, [sp, #120]
    2f50:	93407fc8 	sxtw	x8, w30
    2f54:	b94077e0 	ldr	w0, [sp, #116]
    2f58:	531f7bcb 	lsl	w11, w30, #1
    2f5c:	51000567 	sub	w7, w11, #0x1
    2f60:	531f7800 	lsl	w0, w0, #1
    2f64:	93407ce7 	sxtw	x7, w7
    2f68:	5100040e 	sub	w14, w0, #0x1
    2f6c:	9b0a7d08 	mul	x8, x8, x10
    2f70:	f94047ea 	ldr	x10, [sp, #136]
    2f74:	93407dce 	sxtw	x14, w14
    2f78:	9b097dad 	mul	x13, x13, x9
    2f7c:	9b0a7ce7 	mul	x7, x7, x10
    2f80:	8b0d0369 	add	x9, x27, x13
    2f84:	9b144dce 	madd	x14, x14, x20, x19
    2f88:	8b0d010d 	add	x13, x8, x13
    2f8c:	f94057ea 	ldr	x10, [sp, #168]
    2f90:	8b080129 	add	x9, x9, x8
    2f94:	8b0701c8 	add	x8, x14, x7
    2f98:	8b1b01ad 	add	x13, x13, x27
    2f9c:	8b080150 	add	x16, x10, x8
    2fa0:	910005ac 	add	x12, x13, #0x1
    2fa4:	f9405bea 	ldr	x10, [sp, #176]
    2fa8:	d37df18c 	lsl	x12, x12, #3
    2fac:	8b0c004f 	add	x15, x2, x12
    2fb0:	8b100c30 	add	x16, x1, x16, lsl #3
    2fb4:	8b0d014d 	add	x13, x10, x13
    2fb8:	9100050a 	add	x10, x8, #0x1
    2fbc:	eb1001ff 	cmp	x15, x16
    2fc0:	8b0d0c4d 	add	x13, x2, x13, lsl #3
    2fc4:	8b0a0c2a 	add	x10, x1, x10, lsl #3
    2fc8:	fa4d3142 	ccmp	x10, x13, #0x2, cc  // cc = lo, ul, last
    2fcc:	b940a7ed 	ldr	w13, [sp, #164]
    2fd0:	7a4129a0 	ccmp	w13, #0x1, #0x0, cs  // cs = hs, nlast
    2fd4:	540018c9 	b.ls	32ec <interp_._omp_fn.0+0x648>  // b.plast
    2fd8:	9100218c 	add	x12, x12, #0x8
    2fdc:	d280000d 	mov	x13, #0x0                   	// #0
    2fe0:	8b0c004c 	add	x12, x2, x12
    2fe4:	d503201f 	nop
    2fe8:	4c408d52 	ld2	{v18.2d, v19.2d}, [x10]
    2fec:	3ced69f1 	ldr	q17, [x15, x13]
    2ff0:	3ced6990 	ldr	q16, [x12, x13]
    2ff4:	910041ad 	add	x13, x13, #0x10
    2ff8:	4e72d620 	fadd	v0.2d, v17.2d, v18.2d
    2ffc:	4e71d610 	fadd	v16.2d, v16.2d, v17.2d
    3000:	4eb31e71 	mov	v17.16b, v19.16b
    3004:	4e65ce11 	fmla	v17.2d, v16.2d, v5.2d
    3008:	4eb11e21 	mov	v1.16b, v17.16b
    300c:	4c9f8d40 	st2	{v0.2d, v1.2d}, [x10], #32
    3010:	eb1901bf 	cmp	x13, x25
    3014:	54fffea1 	b.ne	2fe8 <interp_._omp_fn.0+0x344>  // b.any
    3018:	b94067ea 	ldr	w10, [sp, #100]
    301c:	6b0a039f 	cmp	w28, w10
    3020:	540001e0 	b.eq	305c <interp_._omp_fn.0+0x3b8>  // b.none
    3024:	8b18010c 	add	x12, x8, x24
    3028:	8b1a012a 	add	x10, x9, x26
    302c:	8b170129 	add	x9, x9, x23
    3030:	8b160108 	add	x8, x8, x22
    3034:	fc6a7841 	ldr	d1, [x2, x10, lsl #3]
    3038:	fc6c7820 	ldr	d0, [x1, x12, lsl #3]
    303c:	1e612800 	fadd	d0, d0, d1
    3040:	fc2c7820 	str	d0, [x1, x12, lsl #3]
    3044:	fc697841 	ldr	d1, [x2, x9, lsl #3]
    3048:	fc6a7850 	ldr	d16, [x2, x10, lsl #3]
    304c:	fc687820 	ldr	d0, [x1, x8, lsl #3]
    3050:	1e702821 	fadd	d1, d1, d16
    3054:	1f420020 	fmadd	d0, d1, d2, d0
    3058:	fc287820 	str	d0, [x1, x8, lsl #3]
    305c:	f94047e8 	ldr	x8, [sp, #136]
    3060:	93407d6b 	sxtw	x11, w11
    3064:	9b087d6b 	mul	x11, x11, x8
    3068:	8b0b01c8 	add	x8, x14, x11
    306c:	91000569 	add	x9, x11, #0x1
    3070:	aa0403ea 	mov	x10, x4
    3074:	8b0e0129 	add	x9, x9, x14
    3078:	f94037ec 	ldr	x12, [sp, #104]
    307c:	8b090c29 	add	x9, x1, x9, lsl #3
    3080:	8b09018c 	add	x12, x12, x9
    3084:	d503201f 	nop
    3088:	4c408d32 	ld2	{v18.2d, v19.2d}, [x9]
    308c:	9100414a 	add	x10, x10, #0x10
    3090:	3cdf0151 	ldur	q17, [x10, #-16]
    3094:	4eb21e54 	mov	v20.16b, v18.16b
    3098:	3cdf8150 	ldur	q16, [x10, #-8]
    309c:	4e65ce34 	fmla	v20.2d, v17.2d, v5.2d
    30a0:	4e71d610 	fadd	v16.2d, v16.2d, v17.2d
    30a4:	4eb31e71 	mov	v17.16b, v19.16b
    30a8:	4eb41e80 	mov	v0.16b, v20.16b
    30ac:	4e64ce11 	fmla	v17.2d, v16.2d, v4.2d
    30b0:	4eb11e21 	mov	v1.16b, v17.16b
    30b4:	4c9f8d20 	st2	{v0.2d, v1.2d}, [x9], #32
    30b8:	eb09019f 	cmp	x12, x9
    30bc:	54fffe61 	b.ne	3088 <interp_._omp_fn.0+0x3e4>  // b.any
    30c0:	b94067e9 	ldr	w9, [sp, #100]
    30c4:	6b09039f 	cmp	w28, w9
    30c8:	54001040 	b.eq	32d0 <interp_._omp_fn.0+0x62c>  // b.none
    30cc:	b9409bed 	ldr	w13, [sp, #152]
    30d0:	531f79a9 	lsl	w9, w13, #1
    30d4:	510005aa 	sub	w10, w13, #0x1
    30d8:	5100052c 	sub	w12, w9, #0x1
    30dc:	fc6dd881 	ldr	d1, [x4, w13, sxtw #3]
    30e0:	8b29c109 	add	x9, x8, w9, sxtw
    30e4:	93407c00 	sxtw	x0, w0
    30e8:	8b2cc10c 	add	x12, x8, w12, sxtw
    30ec:	fc6ad890 	ldr	d16, [x4, w10, sxtw #3]
    30f0:	9b147c00 	mul	x0, x0, x20
    30f4:	fc6c7820 	ldr	d0, [x1, x12, lsl #3]
    30f8:	1e612a01 	fadd	d1, d16, d1
    30fc:	1f420200 	fmadd	d0, d16, d2, d0
    3100:	8b000268 	add	x8, x19, x0
    3104:	8b0800ea 	add	x10, x7, x8
    3108:	fc2c7820 	str	d0, [x1, x12, lsl #3]
    310c:	fc697820 	ldr	d0, [x1, x9, lsl #3]
    3110:	1f430020 	fmadd	d0, d1, d3, d0
    3114:	fc297820 	str	d0, [x1, x9, lsl #3]
    3118:	7100087f 	cmp	w3, #0x2
    311c:	54000d60 	b.eq	32c8 <interp_._omp_fn.0+0x624>  // b.none
    3120:	f9404bec 	ldr	x12, [sp, #144]
    3124:	8b070007 	add	x7, x0, x7
    3128:	aa0503e9 	mov	x9, x5
    312c:	8b0c00e7 	add	x7, x7, x12
    3130:	f94037ec 	ldr	x12, [sp, #104]
    3134:	8b070c27 	add	x7, x1, x7, lsl #3
    3138:	8b07018c 	add	x12, x12, x7
    313c:	d503201f 	nop
    3140:	4c408cf2 	ld2	{v18.2d, v19.2d}, [x7]
    3144:	91004129 	add	x9, x9, #0x10
    3148:	3cdf0131 	ldur	q17, [x9, #-16]
    314c:	4eb21e54 	mov	v20.16b, v18.16b
    3150:	3cdf8130 	ldur	q16, [x9, #-8]
    3154:	4e65ce34 	fmla	v20.2d, v17.2d, v5.2d
    3158:	4e71d610 	fadd	v16.2d, v16.2d, v17.2d
    315c:	4eb31e71 	mov	v17.16b, v19.16b
    3160:	4eb41e80 	mov	v0.16b, v20.16b
    3164:	4e64ce11 	fmla	v17.2d, v16.2d, v4.2d
    3168:	4eb11e21 	mov	v1.16b, v17.16b
    316c:	4c9f8ce0 	st2	{v0.2d, v1.2d}, [x7], #32
    3170:	eb0c00ff 	cmp	x7, x12
    3174:	54fffe61 	b.ne	3140 <interp_._omp_fn.0+0x49c>  // b.any
    3178:	b94067e7 	ldr	w7, [sp, #100]
    317c:	6b07039f 	cmp	w28, w7
    3180:	54000b20 	b.eq	32e4 <interp_._omp_fn.0+0x640>  // b.none
    3184:	b9409bec 	ldr	w12, [sp, #152]
    3188:	531f7987 	lsl	w7, w12, #1
    318c:	5100058d 	sub	w13, w12, #0x1
    3190:	510004e9 	sub	w9, w7, #0x1
    3194:	fc6cd8a1 	ldr	d1, [x5, w12, sxtw #3]
    3198:	8b27c147 	add	x7, x10, w7, sxtw
    319c:	8b080168 	add	x8, x11, x8
    31a0:	8b29c149 	add	x9, x10, w9, sxtw
    31a4:	fc6dd8b0 	ldr	d16, [x5, w13, sxtw #3]
    31a8:	fc697820 	ldr	d0, [x1, x9, lsl #3]
    31ac:	1e612a01 	fadd	d1, d16, d1
    31b0:	1f420200 	fmadd	d0, d16, d2, d0
    31b4:	fc297820 	str	d0, [x1, x9, lsl #3]
    31b8:	fc677820 	ldr	d0, [x1, x7, lsl #3]
    31bc:	1f430020 	fmadd	d0, d1, d3, d0
    31c0:	fc277820 	str	d0, [x1, x7, lsl #3]
    31c4:	7100087f 	cmp	w3, #0x2
    31c8:	540007c0 	b.eq	32c0 <interp_._omp_fn.0+0x61c>  // b.none
    31cc:	f9404be9 	ldr	x9, [sp, #144]
    31d0:	8b000160 	add	x0, x11, x0
    31d4:	aa0603e7 	mov	x7, x6
    31d8:	8b090000 	add	x0, x0, x9
    31dc:	f94037e9 	ldr	x9, [sp, #104]
    31e0:	8b000c20 	add	x0, x1, x0, lsl #3
    31e4:	8b000129 	add	x9, x9, x0
    31e8:	4c408c12 	ld2	{v18.2d, v19.2d}, [x0]
    31ec:	910040e7 	add	x7, x7, #0x10
    31f0:	3cdf00f1 	ldur	q17, [x7, #-16]
    31f4:	4eb21e54 	mov	v20.16b, v18.16b
    31f8:	3cdf80f0 	ldur	q16, [x7, #-8]
    31fc:	4e64ce34 	fmla	v20.2d, v17.2d, v4.2d
    3200:	4e71d610 	fadd	v16.2d, v16.2d, v17.2d
    3204:	4eb31e71 	mov	v17.16b, v19.16b
    3208:	4eb41e80 	mov	v0.16b, v20.16b
    320c:	4e67ce11 	fmla	v17.2d, v16.2d, v7.2d
    3210:	4eb11e21 	mov	v1.16b, v17.16b
    3214:	4c9f8c00 	st2	{v0.2d, v1.2d}, [x0], #32
    3218:	eb00013f 	cmp	x9, x0
    321c:	54fffe61 	b.ne	31e8 <interp_._omp_fn.0+0x544>  // b.any
    3220:	b94067e0 	ldr	w0, [sp, #100]
    3224:	6b00039f 	cmp	w28, w0
    3228:	54000200 	b.eq	3268 <interp_._omp_fn.0+0x5c4>  // b.none
    322c:	b9409be9 	ldr	w9, [sp, #152]
    3230:	531f7920 	lsl	w0, w9, #1
    3234:	5100052a 	sub	w10, w9, #0x1
    3238:	51000407 	sub	w7, w0, #0x1
    323c:	fc69d8c1 	ldr	d1, [x6, w9, sxtw #3]
    3240:	8b20c100 	add	x0, x8, w0, sxtw
    3244:	8b27c107 	add	x7, x8, w7, sxtw
    3248:	fc6ad8d0 	ldr	d16, [x6, w10, sxtw #3]
    324c:	fc677820 	ldr	d0, [x1, x7, lsl #3]
    3250:	1e612a01 	fadd	d1, d16, d1
    3254:	1f430200 	fmadd	d0, d16, d3, d0
    3258:	fc277820 	str	d0, [x1, x7, lsl #3]
    325c:	fc607820 	ldr	d0, [x1, x0, lsl #3]
    3260:	1f460020 	fmadd	d0, d1, d6, d0
    3264:	fc207820 	str	d0, [x1, x0, lsl #3]
    3268:	b94073e7 	ldr	w7, [sp, #112]
    326c:	b940a3e0 	ldr	w0, [sp, #160]
    3270:	6b07001f 	cmp	w0, w7
    3274:	54000140 	b.eq	329c <interp_._omp_fn.0+0x5f8>  // b.none
    3278:	b9409fe7 	ldr	w7, [sp, #156]
    327c:	110007c0 	add	w0, w30, #0x1
    3280:	6b0703df 	cmp	w30, w7
    3284:	5400064a 	b.ge	334c <interp_._omp_fn.0+0x6a8>  // b.tcont
    3288:	b94073e7 	ldr	w7, [sp, #112]
    328c:	2a0003fe 	mov	w30, w0
    3290:	110004e7 	add	w7, w7, #0x1
    3294:	b90073e7 	str	w7, [sp, #112]
    3298:	17fffee8 	b	2e38 <interp_._omp_fn.0+0x194>
    329c:	a9425bf5 	ldp	x21, x22, [sp, #32]
    32a0:	a94363f7 	ldp	x23, x24, [sp, #48]
    32a4:	a9446bf9 	ldp	x25, x26, [sp, #64]
    32a8:	d283260c 	mov	x12, #0x1930                	// #6448
    32ac:	a9407bfd 	ldp	x29, x30, [sp]
    32b0:	a94153f3 	ldp	x19, x20, [sp, #16]
    32b4:	a94573fb 	ldp	x27, x28, [sp, #80]
    32b8:	8b2c63ff 	add	sp, sp, x12
    32bc:	d65f03c0 	ret
    32c0:	52800029 	mov	w9, #0x1                   	// #1
    32c4:	17ffffdb 	b	3230 <interp_._omp_fn.0+0x58c>
    32c8:	5280002c 	mov	w12, #0x1                   	// #1
    32cc:	17ffffaf 	b	3188 <interp_._omp_fn.0+0x4e4>
    32d0:	93407c00 	sxtw	x0, w0
    32d4:	9b147c00 	mul	x0, x0, x20
    32d8:	8b000268 	add	x8, x19, x0
    32dc:	8b0800ea 	add	x10, x7, x8
    32e0:	17ffff90 	b	3120 <interp_._omp_fn.0+0x47c>
    32e4:	8b0b0108 	add	x8, x8, x11
    32e8:	17ffffb9 	b	31cc <interp_._omp_fn.0+0x528>
    32ec:	a94c33ea 	ldp	x10, x12, [sp, #192]
    32f0:	8b090c49 	add	x9, x2, x9, lsl #3
    32f4:	8b08014a 	add	x10, x10, x8
    32f8:	8b080c28 	add	x8, x1, x8, lsl #3
    32fc:	8b0a0d8a 	add	x10, x12, x10, lsl #3
    3300:	6d408101 	ldp	d1, d0, [x8, #8]
    3304:	fd400530 	ldr	d16, [x9, #8]
    3308:	1e702821 	fadd	d1, d1, d16
    330c:	fd000501 	str	d1, [x8, #8]
    3310:	6d40c121 	ldp	d1, d16, [x9, #8]
    3314:	91002129 	add	x9, x9, #0x8
    3318:	1e702821 	fadd	d1, d1, d16
    331c:	1f420020 	fmadd	d0, d1, d2, d0
    3320:	fc010d00 	str	d0, [x8, #16]!
    3324:	eb08015f 	cmp	x10, x8
    3328:	54fffec1 	b.ne	3300 <interp_._omp_fn.0+0x65c>  // b.any
    332c:	f94047e8 	ldr	x8, [sp, #136]
    3330:	93407d6b 	sxtw	x11, w11
    3334:	5280002d 	mov	w13, #0x1                   	// #1
    3338:	9b087d6b 	mul	x11, x11, x8
    333c:	8b0b01c8 	add	x8, x14, x11
    3340:	7100087f 	cmp	w3, #0x2
    3344:	54ffec60 	b.eq	30d0 <interp_._omp_fn.0+0x42c>  // b.none
    3348:	17ffff49 	b	306c <interp_._omp_fn.0+0x3c8>
    334c:	b94077e0 	ldr	w0, [sp, #116]
    3350:	11000400 	add	w0, w0, #0x1
    3354:	b90077e0 	str	w0, [sp, #116]
    3358:	52800020 	mov	w0, #0x1                   	// #1
    335c:	17ffffcb 	b	3288 <interp_._omp_fn.0+0x5e4>
    3360:	2a0303e0 	mov	w0, w3
    3364:	17fffee7 	b	2f00 <interp_._omp_fn.0+0x25c>
    3368:	11000421 	add	w1, w1, #0x1
    336c:	52800002 	mov	w2, #0x0                   	// #0
    3370:	17fffe62 	b	2cf8 <interp_._omp_fn.0+0x54>

0000000000003374 <interp_._omp_fn.1>:
    3374:	a9a97bfd 	stp	x29, x30, [sp, #-368]!
    3378:	910003fd 	mov	x29, sp
    337c:	a9025bf5 	stp	x21, x22, [sp, #32]
    3380:	aa0003f6 	mov	x22, x0
    3384:	a90363f7 	stp	x23, x24, [sp, #48]
    3388:	b9406018 	ldr	w24, [x0, #96]
    338c:	f9400ac1 	ldr	x1, [x22, #16]
    3390:	a9046bf9 	stp	x25, x26, [sp, #64]
    3394:	a90573fb 	stp	x27, x28, [sp, #80]
    3398:	b9400039 	ldr	w25, [x1]
    339c:	294b5c1b 	ldp	w27, w23, [x0, #88]
    33a0:	a90153f3 	stp	x19, x20, [sp, #16]
    33a4:	f9400c00 	ldr	x0, [x0, #24]
    33a8:	f94016c1 	ldr	x1, [x22, #40]
    33ac:	f9003be1 	str	x1, [sp, #112]
    33b0:	f9401ac1 	ldr	x1, [x22, #48]
    33b4:	f90037e1 	str	x1, [sp, #104]
    33b8:	b94066c1 	ldr	w1, [x22, #100]
    33bc:	b90113e1 	str	w1, [sp, #272]
    33c0:	b9406ac1 	ldr	w1, [x22, #104]
    33c4:	b9400000 	ldr	w0, [x0]
    33c8:	b90093e1 	str	w1, [sp, #144]
    33cc:	a943d6dc 	ldp	x28, x21, [x22, #56]
    33d0:	a944ced4 	ldp	x20, x19, [x22, #72]
    33d4:	b9406ec1 	ldr	w1, [x22, #108]
    33d8:	b9008fe1 	str	w1, [sp, #140]
    33dc:	6b00031f 	cmp	w24, w0
    33e0:	5400162a 	b.ge	36a4 <interp_._omp_fn.1+0x330>  // b.tcont
    33e4:	4b180000 	sub	w0, w0, w24
    33e8:	6b1902ff 	cmp	w23, w25
    33ec:	540015ca 	b.ge	36a4 <interp_._omp_fn.1+0x330>  // b.tcont
    33f0:	4b170323 	sub	w3, w25, w23
    33f4:	b90083e3 	str	w3, [sp, #128]
    33f8:	1b037c01 	mul	w1, w0, w3
    33fc:	b9007be1 	str	w1, [sp, #120]
    3400:	97fff870 	bl	15c0 <omp_get_num_threads@plt>
    3404:	2a0003fa 	mov	w26, w0
    3408:	97fff896 	bl	1660 <omp_get_thread_num@plt>
    340c:	b9407be1 	ldr	w1, [sp, #120]
    3410:	b94083e3 	ldr	w3, [sp, #128]
    3414:	1ada082c 	udiv	w12, w1, w26
    3418:	1b1a8581 	msub	w1, w12, w26, w1
    341c:	6b01001f 	cmp	w0, w1
    3420:	5400b043 	b.cc	4a28 <interp_._omp_fn.1+0x16b4>  // b.lo, b.ul, b.last
    3424:	1b000580 	madd	w0, w12, w0, w1
    3428:	0b000181 	add	w1, w12, w0
    342c:	6b01001f 	cmp	w0, w1
    3430:	540013a2 	b.cs	36a4 <interp_._omp_fn.1+0x330>  // b.hs, b.nlast
    3434:	a9400ac6 	ldp	x6, x2, [x22]
    3438:	5100058c 	sub	w12, w12, #0x1
    343c:	1ac3080a 	udiv	w10, w0, w3
    3440:	b94113e7 	ldr	w7, [sp, #272]
    3444:	a946cbf1 	ldp	x17, x18, [sp, #104]
    3448:	5280000b 	mov	w11, #0x0                   	// #0
    344c:	93407ced 	sxtw	x13, w7
    3450:	1e6c1005 	fmov	d5, #5.000000000000000000e-01
    3454:	b9400044 	ldr	w4, [x2]
    3458:	1b038145 	msub	w5, w10, w3, w0
    345c:	cb0d0fe1 	neg	x1, x13, lsl #3
    3460:	0b18014a 	add	w10, w10, w24
    3464:	5100088e 	sub	w14, w4, #0x2
    3468:	91004021 	add	x1, x1, #0x10
    346c:	121f79c0 	and	w0, w14, #0xfffffffe
    3470:	320001c3 	orr	w3, w14, #0x1
    3474:	1100081a 	add	w26, w0, #0x2
    3478:	11000c00 	add	w0, w0, #0x3
    347c:	53017dc9 	lsr	w9, w14, #1
    3480:	5100048f 	sub	w15, w4, #0x1
    3484:	93407c00 	sxtw	x0, w0
    3488:	51000529 	sub	w9, w9, #0x1
    348c:	a90a07e0 	stp	x0, x1, [sp, #160]
    3490:	531f7861 	lsl	w1, w3, #1
    3494:	11000822 	add	w2, w1, #0x2
    3498:	91000529 	add	x9, x9, #0x1
    349c:	d37ff9f0 	lsl	x16, x15, #1
    34a0:	4b070021 	sub	w1, w1, w7
    34a4:	4b070042 	sub	w2, w2, w7
    34a8:	6f03f404 	fmov	v4.2d, #5.000000000000000000e-01
    34ac:	2a0e03e0 	mov	w0, w14
    34b0:	f94012c8 	ldr	x8, [x22, #32]
    34b4:	0b1700a5 	add	w5, w5, w23
    34b8:	cb0d038d 	sub	x13, x28, x13
    34bc:	d37ced29 	lsl	x9, x9, #4
    34c0:	93407f5e 	sxtw	x30, w26
    34c4:	91000610 	add	x16, x16, #0x1
    34c8:	910009ef 	add	x15, x15, #0x2
    34cc:	93407c63 	sxtw	x3, w3
    34d0:	93407c42 	sxtw	x2, w2
    34d4:	93407c21 	sxtw	x1, w1
    34d8:	a9078fe1 	stp	x1, x3, [sp, #120]
    34dc:	b90097fa 	str	w26, [sp, #148]
    34e0:	f9004fe2 	str	x2, [sp, #152]
    34e4:	f9005be0 	str	x0, [sp, #176]
    34e8:	910020c0 	add	x0, x6, #0x8
    34ec:	f9005fe0 	str	x0, [sp, #184]
    34f0:	f90063f6 	str	x22, [sp, #192]
    34f4:	d503201f 	nop
    34f8:	6b04037f 	cmp	w27, w4
    34fc:	5400030a 	b.ge	355c <interp_._omp_fn.1+0x1e8>  // b.tcont
    3500:	531f7940 	lsl	w0, w10, #1
    3504:	531f78a3 	lsl	w3, w5, #1
    3508:	4b180000 	sub	w0, w0, w24
    350c:	4b170063 	sub	w3, w3, w23
    3510:	93407d47 	sxtw	x7, w10
    3514:	93407ca2 	sxtw	x2, w5
    3518:	93407c00 	sxtw	x0, w0
    351c:	93407c63 	sxtw	x3, w3
    3520:	93407f61 	sxtw	x1, w27
    3524:	9b144ce7 	madd	x7, x7, x20, x19
    3528:	9b117000 	madd	x0, x0, x17, x28
    352c:	9b120060 	madd	x0, x3, x18, x0
    3530:	9b151c42 	madd	x2, x2, x21, x7
    3534:	8b010000 	add	x0, x0, x1
    3538:	8b020cc2 	add	x2, x6, x2, lsl #3
    353c:	8b000d00 	add	x0, x8, x0, lsl #3
    3540:	fc617841 	ldr	d1, [x2, x1, lsl #3]
    3544:	91000421 	add	x1, x1, #0x1
    3548:	fd400000 	ldr	d0, [x0]
    354c:	1e612800 	fadd	d0, d0, d1
    3550:	fc010400 	str	d0, [x0], #16
    3554:	6b01009f 	cmp	w4, w1
    3558:	54ffff4c 	b.gt	3540 <interp_._omp_fn.1+0x1cc>
    355c:	7100049f 	cmp	w4, #0x1
    3560:	5400092d 	b.le	3684 <interp_._omp_fn.1+0x310>
    3564:	531f7956 	lsl	w22, w10, #1
    3568:	531f78a1 	lsl	w1, w5, #1
    356c:	4b1802d6 	sub	w22, w22, w24
    3570:	4b170021 	sub	w1, w1, w23
    3574:	93407d40 	sxtw	x0, w10
    3578:	93407cba 	sxtw	x26, w5
    357c:	93407ed6 	sxtw	x22, w22
    3580:	93407c21 	sxtw	x1, w1
    3584:	9b147c00 	mul	x0, x0, x20
    3588:	9b127c21 	mul	x1, x1, x18
    358c:	9b117ed6 	mul	x22, x22, x17
    3590:	8b000262 	add	x2, x19, x0
    3594:	9b157f5a 	mul	x26, x26, x21
    3598:	8b160383 	add	x3, x28, x22
    359c:	8b0102d6 	add	x22, x22, x1
    35a0:	8b1a0000 	add	x0, x0, x26
    35a4:	8b1601b6 	add	x22, x13, x22
    35a8:	8b130000 	add	x0, x0, x19
    35ac:	8b010063 	add	x3, x3, x1
    35b0:	8b0001e7 	add	x7, x15, x0
    35b4:	91000ac1 	add	x1, x22, #0x2
    35b8:	91000400 	add	x0, x0, #0x1
    35bc:	8b160216 	add	x22, x16, x22
    35c0:	8b070cc7 	add	x7, x6, x7, lsl #3
    35c4:	8b010d01 	add	x1, x8, x1, lsl #3
    35c8:	d37df000 	lsl	x0, x0, #3
    35cc:	eb0100ff 	cmp	x7, x1
    35d0:	8b160d16 	add	x22, x8, x22, lsl #3
    35d4:	8b0000c7 	add	x7, x6, x0
    35d8:	fa4782c0 	ccmp	x22, x7, #0x0, hi  // hi = pmore
    35dc:	8b1a0042 	add	x2, x2, x26
    35e0:	7a4799c0 	ccmp	w14, #0x7, #0x0, ls  // ls = plast
    35e4:	54008f29 	b.ls	47c8 <interp_._omp_fn.1+0x1454>  // b.plast
    35e8:	91002000 	add	x0, x0, #0x8
    35ec:	8b0000da 	add	x26, x6, x0
    35f0:	d2800000 	mov	x0, #0x0                   	// #0
    35f4:	d503201f 	nop
    35f8:	3ce06b42 	ldr	q2, [x26, x0]
    35fc:	aa0103f6 	mov	x22, x1
    3600:	3ce068e3 	ldr	q3, [x7, x0]
    3604:	91004000 	add	x0, x0, #0x10
    3608:	4c408c20 	ld2	{v0.2d, v1.2d}, [x1]
    360c:	91008021 	add	x1, x1, #0x20
    3610:	4e63d442 	fadd	v2.2d, v2.2d, v3.2d
    3614:	4e64cc40 	fmla	v0.2d, v2.2d, v4.2d
    3618:	fc0106c0 	str	d0, [x22], #16
    361c:	4d0086c0 	st1	{v0.d}[1], [x22]
    3620:	eb09001f 	cmp	x0, x9
    3624:	54fffea1 	b.ne	35f8 <interp_._omp_fn.1+0x284>  // b.any
    3628:	a94783e1 	ldp	x1, x0, [sp, #120]
    362c:	8b1e0047 	add	x7, x2, x30
    3630:	fc6778c2 	ldr	d2, [x6, x7, lsl #3]
    3634:	8b000040 	add	x0, x2, x0
    3638:	8b010061 	add	x1, x3, x1
    363c:	fc6078c1 	ldr	d1, [x6, x0, lsl #3]
    3640:	fc617900 	ldr	d0, [x8, x1, lsl #3]
    3644:	b94097e0 	ldr	w0, [sp, #148]
    3648:	1e622821 	fadd	d1, d1, d2
    364c:	1f450020 	fmadd	d0, d1, d5, d0
    3650:	fc217900 	str	d0, [x8, x1, lsl #3]
    3654:	6b00009f 	cmp	w4, w0
    3658:	5400016d 	b.le	3684 <interp_._omp_fn.1+0x310>
    365c:	f94053e0 	ldr	x0, [sp, #160]
    3660:	fc6778c2 	ldr	d2, [x6, x7, lsl #3]
    3664:	8b000042 	add	x2, x2, x0
    3668:	f9404fe0 	ldr	x0, [sp, #152]
    366c:	fc6278c1 	ldr	d1, [x6, x2, lsl #3]
    3670:	8b000063 	add	x3, x3, x0
    3674:	1e622821 	fadd	d1, d1, d2
    3678:	fc637900 	ldr	d0, [x8, x3, lsl #3]
    367c:	1f450020 	fmadd	d0, d1, d5, d0
    3680:	fc237900 	str	d0, [x8, x3, lsl #3]
    3684:	6b0c017f 	cmp	w11, w12
    3688:	540000c0 	b.eq	36a0 <interp_._omp_fn.1+0x32c>  // b.none
    368c:	110004a5 	add	w5, w5, #0x1
    3690:	6b05033f 	cmp	w25, w5
    3694:	5400892d 	b.le	47b8 <interp_._omp_fn.1+0x1444>
    3698:	1100056b 	add	w11, w11, #0x1
    369c:	17ffff97 	b	34f8 <interp_._omp_fn.1+0x184>
    36a0:	f94063f6 	ldr	x22, [sp, #192]
    36a4:	97fff817 	bl	1700 <GOMP_barrier@plt>
    36a8:	a94102c1 	ldp	x1, x0, [x22, #16]
    36ac:	b9400021 	ldr	w1, [x1]
    36b0:	b9400000 	ldr	w0, [x0]
    36b4:	b9007be1 	str	w1, [sp, #120]
    36b8:	5100043a 	sub	w26, w1, #0x1
    36bc:	6b00031f 	cmp	w24, w0
    36c0:	5400272a 	b.ge	3ba4 <interp_._omp_fn.1+0x830>  // b.tcont
    36c4:	b9407be1 	ldr	w1, [sp, #120]
    36c8:	4b180000 	sub	w0, w0, w24
    36cc:	7100043f 	cmp	w1, #0x1
    36d0:	540026ad 	b.le	3ba4 <interp_._omp_fn.1+0x830>
    36d4:	1b1a7c02 	mul	w2, w0, w26
    36d8:	b90083e2 	str	w2, [sp, #128]
    36dc:	97fff7b9 	bl	15c0 <omp_get_num_threads@plt>
    36e0:	2a0003f9 	mov	w25, w0
    36e4:	97fff7df 	bl	1660 <omp_get_thread_num@plt>
    36e8:	b94083e2 	ldr	w2, [sp, #128]
    36ec:	1ad90841 	udiv	w1, w2, w25
    36f0:	1b198822 	msub	w2, w1, w25, w2
    36f4:	6b02001f 	cmp	w0, w2
    36f8:	54009923 	b.cc	4a1c <interp_._omp_fn.1+0x16a8>  // b.lo, b.ul, b.last
    36fc:	1b000823 	madd	w3, w1, w0, w2
    3700:	0b030020 	add	w0, w1, w3
    3704:	6b00007f 	cmp	w3, w0
    3708:	540024e2 	b.cs	3ba4 <interp_._omp_fn.1+0x830>  // b.hs, b.nlast
    370c:	a94012c2 	ldp	x2, x4, [x22]
    3710:	51000421 	sub	w1, w1, #0x1
    3714:	b94113e5 	ldr	w5, [sp, #272]
    3718:	1e6c1010 	fmov	d16, #5.000000000000000000e-01
    371c:	1ada0870 	udiv	w16, w3, w26
    3720:	b90083e1 	str	w1, [sp, #128]
    3724:	6f03f406 	fmov	v6.2d, #5.000000000000000000e-01
    3728:	b90133f7 	str	w23, [sp, #304]
    372c:	93407ca0 	sxtw	x0, w5
    3730:	b94093f7 	ldr	w23, [sp, #144]
    3734:	b940008c 	ldr	w12, [x4]
    3738:	1e6a1007 	fmov	d7, #2.500000000000000000e-01
    373c:	cb000fe1 	neg	x1, x0, lsl #3
    3740:	1b1a8e0a 	msub	w10, w16, w26, w3
    3744:	51000992 	sub	w18, w12, #0x2
    3748:	91004021 	add	x1, x1, #0x10
    374c:	32000249 	orr	w9, w18, #0x1
    3750:	f9008fe1 	str	x1, [sp, #280]
    3754:	4b1b0181 	sub	w1, w12, w27
    3758:	121f7a46 	and	w6, w18, #0xfffffffe
    375c:	51000423 	sub	w3, w1, #0x1
    3760:	531f7927 	lsl	w7, w9, #1
    3764:	121f786b 	and	w11, w3, #0xfffffffe
    3768:	110008e8 	add	w8, w7, #0x2
    376c:	0b1b016b 	add	w11, w11, w27
    3770:	53017e4d 	lsr	w13, w18, #1
    3774:	4b050108 	sub	w8, w8, w5
    3778:	53017c6e 	lsr	w14, w3, #1
    377c:	110008da 	add	w26, w6, #0x2
    3780:	531f796f 	lsl	w15, w11, #1
    3784:	510005ad 	sub	w13, w13, #0x1
    3788:	11000cc6 	add	w6, w6, #0x3
    378c:	510005ce 	sub	w14, w14, #0x1
    3790:	b9009be3 	str	w3, [sp, #152]
    3794:	51000583 	sub	w3, w12, #0x1
    3798:	93407d08 	sxtw	x8, w8
    379c:	110009f1 	add	w17, w15, #0x2
    37a0:	910005ad 	add	x13, x13, #0x1
    37a4:	910005ce 	add	x14, x14, #0x1
    37a8:	11000579 	add	w25, w11, #0x1
    37ac:	4b0500e7 	sub	w7, w7, w5
    37b0:	93407cc6 	sxtw	x6, w6
    37b4:	4b1b0231 	sub	w17, w17, w27
    37b8:	4b1b01ef 	sub	w15, w15, w27
    37bc:	d37ff864 	lsl	x4, x3, #1
    37c0:	a90f1be8 	stp	x8, x6, [sp, #240]
    37c4:	cb000380 	sub	x0, x28, x0
    37c8:	6f02f605 	fmov	v5.2d, #2.500000000000000000e-01
    37cc:	f9009ff6 	str	x22, [sp, #312]
    37d0:	f94012c8 	ldr	x8, [x22, #32]
    37d4:	93407f46 	sxtw	x6, w26
    37d8:	f9403bf6 	ldr	x22, [sp, #112]
    37dc:	d37f7c25 	ubfiz	x5, x1, #1, #32
    37e0:	93407d6b 	sxtw	x11, w11
    37e4:	0b180210 	add	w16, w16, w24
    37e8:	1100054a 	add	w10, w10, #0x1
    37ec:	d37cedad 	lsl	x13, x13, #4
    37f0:	d37cedce 	lsl	x14, x14, #4
    37f4:	9100087e 	add	x30, x3, #0x2
    37f8:	b900c3fa 	str	w26, [sp, #192]
    37fc:	2a0103fa 	mov	w26, w1
    3800:	91000481 	add	x1, x4, #0x1
    3804:	93407d29 	sxtw	x9, w9
    3808:	93407ce7 	sxtw	x7, w7
    380c:	93407e31 	sxtw	x17, w17
    3810:	93407def 	sxtw	x15, w15
    3814:	d10004a5 	sub	x5, x5, #0x1
    3818:	b90097f2 	str	w18, [sp, #148]
    381c:	f90053e5 	str	x5, [sp, #160]
    3820:	f90057e0 	str	x0, [sp, #168]
    3824:	91004040 	add	x0, x2, #0x10
    3828:	f9005be1 	str	x1, [sp, #176]
    382c:	2a1203e1 	mov	w1, w18
    3830:	52800012 	mov	w18, #0x0                   	// #0
    3834:	f9005fe7 	str	x7, [sp, #184]
    3838:	f90067e9 	str	x9, [sp, #200]
    383c:	f9006beb 	str	x11, [sp, #208]
    3840:	93407f2b 	sxtw	x11, w25
    3844:	b900dbf9 	str	w25, [sp, #216]
    3848:	f90073e6 	str	x6, [sp, #224]
    384c:	f90077ef 	str	x15, [sp, #232]
    3850:	f90083f1 	str	x17, [sp, #256]
    3854:	f90087eb 	str	x11, [sp, #264]
    3858:	f90093e1 	str	x1, [sp, #288]
    385c:	f90097e0 	str	x0, [sp, #296]
    3860:	6b0c037f 	cmp	w27, w12
    3864:	54000b0a 	b.ge	39c4 <interp_._omp_fn.1+0x650>  // b.tcont
    3868:	531f7a01 	lsl	w1, w16, #1
    386c:	531f7947 	lsl	w7, w10, #1
    3870:	11000545 	add	w5, w10, #0x1
    3874:	4b180021 	sub	w1, w1, w24
    3878:	4b1700e7 	sub	w7, w7, w23
    387c:	93407e03 	sxtw	x3, w16
    3880:	93407ca5 	sxtw	x5, w5
    3884:	93407c21 	sxtw	x1, w1
    3888:	f94037e6 	ldr	x6, [sp, #104]
    388c:	93407ce7 	sxtw	x7, w7
    3890:	9b144c63 	madd	x3, x3, x20, x19
    3894:	93407f64 	sxtw	x4, w27
    3898:	9b157ca5 	mul	x5, x5, x21
    389c:	8b040380 	add	x0, x28, x4
    38a0:	9b167ce7 	mul	x7, x7, x22
    38a4:	9b067c21 	mul	x1, x1, x6
    38a8:	8b05006b 	add	x11, x3, x5
    38ac:	8b040169 	add	x9, x11, x4
    38b0:	cb1500a5 	sub	x5, x5, x21
    38b4:	8b070026 	add	x6, x1, x7
    38b8:	8b1a0131 	add	x17, x9, x26
    38bc:	f94053ef 	ldr	x15, [sp, #160]
    38c0:	8b060000 	add	x0, x0, x6
    38c4:	8b0400a6 	add	x6, x5, x4
    38c8:	8b110c51 	add	x17, x2, x17, lsl #3
    38cc:	8b0300c6 	add	x6, x6, x3
    38d0:	8b0001ef 	add	x15, x15, x0
    38d4:	8b000d00 	add	x0, x8, x0, lsl #3
    38d8:	8b090c49 	add	x9, x2, x9, lsl #3
    38dc:	eb00023f 	cmp	x17, x0
    38e0:	8b060351 	add	x17, x26, x6
    38e4:	8b0f0d0f 	add	x15, x8, x15, lsl #3
    38e8:	8b060c46 	add	x6, x2, x6, lsl #3
    38ec:	fa4981e0 	ccmp	x15, x9, #0x0, hi  // hi = pmore
    38f0:	8b110c51 	add	x17, x2, x17, lsl #3
    38f4:	1a9f87f9 	cset	w25, ls  // ls = plast
    38f8:	eb11001f 	cmp	x0, x17
    38fc:	fa4631e0 	ccmp	x15, x6, #0x0, cc  // cc = lo, ul, last
    3900:	b9409bef 	ldr	w15, [sp, #152]
    3904:	8b010381 	add	x1, x28, x1
    3908:	8b050063 	add	x3, x3, x5
    390c:	8b070021 	add	x1, x1, x7
    3910:	1a9f87e7 	cset	w7, ls  // ls = plast
    3914:	710021ff 	cmp	w15, #0x8
    3918:	0a070327 	and	w7, w25, w7
    391c:	1a9f97ef 	cset	w15, hi  // hi = pmore
    3920:	6a0701ff 	tst	w15, w7
    3924:	540079e0 	b.eq	4860 <interp_._omp_fn.1+0x14ec>  // b.none
    3928:	d2800004 	mov	x4, #0x0                   	// #0
    392c:	d503201f 	nop
    3930:	3ce46922 	ldr	q2, [x9, x4]
    3934:	aa0003e5 	mov	x5, x0
    3938:	3ce468c3 	ldr	q3, [x6, x4]
    393c:	91004084 	add	x4, x4, #0x10
    3940:	4c408c00 	ld2	{v0.2d, v1.2d}, [x0]
    3944:	91008000 	add	x0, x0, #0x20
    3948:	4e63d442 	fadd	v2.2d, v2.2d, v3.2d
    394c:	4e66cc40 	fmla	v0.2d, v2.2d, v6.2d
    3950:	fc0104a0 	str	d0, [x5], #16
    3954:	4d0084a0 	st1	{v0.d}[1], [x5]
    3958:	eb0e009f 	cmp	x4, x14
    395c:	54fffea1 	b.ne	3930 <interp_._omp_fn.1+0x5bc>  // b.any
    3960:	f9406be0 	ldr	x0, [sp, #208]
    3964:	f94077e5 	ldr	x5, [sp, #232]
    3968:	8b000164 	add	x4, x11, x0
    396c:	8b000060 	add	x0, x3, x0
    3970:	8b050025 	add	x5, x1, x5
    3974:	fc647841 	ldr	d1, [x2, x4, lsl #3]
    3978:	fc607842 	ldr	d2, [x2, x0, lsl #3]
    397c:	fc657900 	ldr	d0, [x8, x5, lsl #3]
    3980:	b940dbe0 	ldr	w0, [sp, #216]
    3984:	1e622821 	fadd	d1, d1, d2
    3988:	1f500020 	fmadd	d0, d1, d16, d0
    398c:	fc257900 	str	d0, [x8, x5, lsl #3]
    3990:	6b00019f 	cmp	w12, w0
    3994:	5400018d 	b.le	39c4 <interp_._omp_fn.1+0x650>
    3998:	f94087e0 	ldr	x0, [sp, #264]
    399c:	8b00016b 	add	x11, x11, x0
    39a0:	8b000063 	add	x3, x3, x0
    39a4:	f94083e0 	ldr	x0, [sp, #256]
    39a8:	fc6b7841 	ldr	d1, [x2, x11, lsl #3]
    39ac:	fc637842 	ldr	d2, [x2, x3, lsl #3]
    39b0:	8b000021 	add	x1, x1, x0
    39b4:	1e622821 	fadd	d1, d1, d2
    39b8:	fc617900 	ldr	d0, [x8, x1, lsl #3]
    39bc:	1f500020 	fmadd	d0, d1, d16, d0
    39c0:	fc217900 	str	d0, [x8, x1, lsl #3]
    39c4:	7100059f 	cmp	w12, #0x1
    39c8:	54000d8d 	b.le	3b78 <interp_._omp_fn.1+0x804>
    39cc:	531f7a00 	lsl	w0, w16, #1
    39d0:	531f7941 	lsl	w1, w10, #1
    39d4:	4b180000 	sub	w0, w0, w24
    39d8:	4b170021 	sub	w1, w1, w23
    39dc:	f94037e5 	ldr	x5, [sp, #104]
    39e0:	93407c00 	sxtw	x0, w0
    39e4:	93407c21 	sxtw	x1, w1
    39e8:	11000543 	add	w3, w10, #0x1
    39ec:	93407e04 	sxtw	x4, w16
    39f0:	b94097f1 	ldr	w17, [sp, #148]
    39f4:	9b057c00 	mul	x0, x0, x5
    39f8:	93407c63 	sxtw	x3, w3
    39fc:	9b167c21 	mul	x1, x1, x22
    3a00:	8b000385 	add	x5, x28, x0
    3a04:	9b144c84 	madd	x4, x4, x20, x19
    3a08:	8b010000 	add	x0, x0, x1
    3a0c:	8b0100a5 	add	x5, x5, x1
    3a10:	f94057e1 	ldr	x1, [sp, #168]
    3a14:	9b157c63 	mul	x3, x3, x21
    3a18:	f9405be6 	ldr	x6, [sp, #176]
    3a1c:	8b030089 	add	x9, x4, x3
    3a20:	8b000020 	add	x0, x1, x0
    3a24:	cb150063 	sub	x3, x3, x21
    3a28:	91000801 	add	x1, x0, #0x2
    3a2c:	8b0903c7 	add	x7, x30, x9
    3a30:	9100052b 	add	x11, x9, #0x1
    3a34:	8b030084 	add	x4, x4, x3
    3a38:	8b0000c0 	add	x0, x6, x0
    3a3c:	8b070c47 	add	x7, x2, x7, lsl #3
    3a40:	8b010d01 	add	x1, x8, x1, lsl #3
    3a44:	d37df16b 	lsl	x11, x11, #3
    3a48:	8b0403c3 	add	x3, x30, x4
    3a4c:	91000486 	add	x6, x4, #0x1
    3a50:	8b000d00 	add	x0, x8, x0, lsl #3
    3a54:	eb0100ff 	cmp	x7, x1
    3a58:	8b0b0047 	add	x7, x2, x11
    3a5c:	8b030c43 	add	x3, x2, x3, lsl #3
    3a60:	fa478000 	ccmp	x0, x7, #0x0, hi  // hi = pmore
    3a64:	d37df0c6 	lsl	x6, x6, #3
    3a68:	1a9f87ef 	cset	w15, ls  // ls = plast
    3a6c:	eb03003f 	cmp	x1, x3
    3a70:	8b060043 	add	x3, x2, x6
    3a74:	fa433000 	ccmp	x0, x3, #0x0, cc  // cc = lo, ul, last
    3a78:	1a9f87e0 	cset	w0, ls  // ls = plast
    3a7c:	71000a3f 	cmp	w17, #0x2
    3a80:	0a0001e0 	and	w0, w15, w0
    3a84:	1a9f97ef 	cset	w15, hi  // hi = pmore
    3a88:	6a0001ff 	tst	w15, w0
    3a8c:	54006c00 	b.eq	480c <interp_._omp_fn.1+0x1498>  // b.none
    3a90:	9100216b 	add	x11, x11, #0x8
    3a94:	910020c6 	add	x6, x6, #0x8
    3a98:	8b0b004b 	add	x11, x2, x11
    3a9c:	8b060046 	add	x6, x2, x6
    3aa0:	d2800000 	mov	x0, #0x0                   	// #0
    3aa4:	d503201f 	nop
    3aa8:	3ce068c1 	ldr	q1, [x6, x0]
    3aac:	aa0103ef 	mov	x15, x1
    3ab0:	3ce06960 	ldr	q0, [x11, x0]
    3ab4:	3ce068e4 	ldr	q4, [x7, x0]
    3ab8:	4e61d400 	fadd	v0.2d, v0.2d, v1.2d
    3abc:	3ce06861 	ldr	q1, [x3, x0]
    3ac0:	91004000 	add	x0, x0, #0x10
    3ac4:	4c408c22 	ld2	{v2.2d, v3.2d}, [x1]
    3ac8:	91008021 	add	x1, x1, #0x20
    3acc:	4e64d400 	fadd	v0.2d, v0.2d, v4.2d
    3ad0:	4e61d400 	fadd	v0.2d, v0.2d, v1.2d
    3ad4:	4e65cc02 	fmla	v2.2d, v0.2d, v5.2d
    3ad8:	fc0105e2 	str	d2, [x15], #16
    3adc:	4d0085e2 	st1	{v2.d}[1], [x15]
    3ae0:	eb0d001f 	cmp	x0, x13
    3ae4:	54fffe21 	b.ne	3aa8 <interp_._omp_fn.1+0x734>  // b.any
    3ae8:	f94073e0 	ldr	x0, [sp, #224]
    3aec:	8b000126 	add	x6, x9, x0
    3af0:	8b000083 	add	x3, x4, x0
    3af4:	f94067e0 	ldr	x0, [sp, #200]
    3af8:	fc637841 	ldr	d1, [x2, x3, lsl #3]
    3afc:	fc667840 	ldr	d0, [x2, x6, lsl #3]
    3b00:	8b000121 	add	x1, x9, x0
    3b04:	8b000080 	add	x0, x4, x0
    3b08:	1e612800 	fadd	d0, d0, d1
    3b0c:	fc617843 	ldr	d3, [x2, x1, lsl #3]
    3b10:	fc607842 	ldr	d2, [x2, x0, lsl #3]
    3b14:	f9405fe1 	ldr	x1, [sp, #184]
    3b18:	1e632800 	fadd	d0, d0, d3
    3b1c:	b940c3e0 	ldr	w0, [sp, #192]
    3b20:	8b0100a1 	add	x1, x5, x1
    3b24:	1e622800 	fadd	d0, d0, d2
    3b28:	fc617901 	ldr	d1, [x8, x1, lsl #3]
    3b2c:	1f470400 	fmadd	d0, d0, d7, d1
    3b30:	fc217900 	str	d0, [x8, x1, lsl #3]
    3b34:	6b00019f 	cmp	w12, w0
    3b38:	5400020d 	b.le	3b78 <interp_._omp_fn.1+0x804>
    3b3c:	f9407fe0 	ldr	x0, [sp, #248]
    3b40:	fc667843 	ldr	d3, [x2, x6, lsl #3]
    3b44:	8b000129 	add	x9, x9, x0
    3b48:	8b000084 	add	x4, x4, x0
    3b4c:	fc637842 	ldr	d2, [x2, x3, lsl #3]
    3b50:	f9407be0 	ldr	x0, [sp, #240]
    3b54:	fc697840 	ldr	d0, [x2, x9, lsl #3]
    3b58:	fc647844 	ldr	d4, [x2, x4, lsl #3]
    3b5c:	8b0000a5 	add	x5, x5, x0
    3b60:	1e642800 	fadd	d0, d0, d4
    3b64:	fc657901 	ldr	d1, [x8, x5, lsl #3]
    3b68:	1e632800 	fadd	d0, d0, d3
    3b6c:	1e622800 	fadd	d0, d0, d2
    3b70:	1f470400 	fmadd	d0, d0, d7, d1
    3b74:	fc257900 	str	d0, [x8, x5, lsl #3]
    3b78:	b94083e0 	ldr	w0, [sp, #128]
    3b7c:	6b12001f 	cmp	w0, w18
    3b80:	540000e0 	b.eq	3b9c <interp_._omp_fn.1+0x828>  // b.none
    3b84:	b9407be0 	ldr	w0, [sp, #120]
    3b88:	1100054a 	add	w10, w10, #0x1
    3b8c:	6b0a001f 	cmp	w0, w10
    3b90:	540060cd 	b.le	47a8 <interp_._omp_fn.1+0x1434>
    3b94:	11000652 	add	w18, w18, #0x1
    3b98:	17ffff32 	b	3860 <interp_._omp_fn.1+0x4ec>
    3b9c:	b94133f7 	ldr	w23, [sp, #304]
    3ba0:	f9409ff6 	ldr	x22, [sp, #312]
    3ba4:	97fff6d7 	bl	1700 <GOMP_barrier@plt>
    3ba8:	a94102c1 	ldp	x1, x0, [x22, #16]
    3bac:	b9400000 	ldr	w0, [x0]
    3bb0:	b9400021 	ldr	w1, [x1]
    3bb4:	b9007be1 	str	w1, [sp, #120]
    3bb8:	5100041a 	sub	w26, w0, #0x1
    3bbc:	7100041f 	cmp	w0, #0x1
    3bc0:	5400276d 	b.le	40ac <interp_._omp_fn.1+0xd38>
    3bc4:	b9407be0 	ldr	w0, [sp, #120]
    3bc8:	6b0002ff 	cmp	w23, w0
    3bcc:	5400270a 	b.ge	40ac <interp_._omp_fn.1+0xd38>  // b.tcont
    3bd0:	4b170019 	sub	w25, w0, w23
    3bd4:	97fff67b 	bl	15c0 <omp_get_num_threads@plt>
    3bd8:	2a0003f8 	mov	w24, w0
    3bdc:	97fff6a1 	bl	1660 <omp_get_thread_num@plt>
    3be0:	1b197f5a 	mul	w26, w26, w25
    3be4:	1ad80b42 	udiv	w2, w26, w24
    3be8:	1b18e841 	msub	w1, w2, w24, w26
    3bec:	6b01001f 	cmp	w0, w1
    3bf0:	54007223 	b.cc	4a34 <interp_._omp_fn.1+0x16c0>  // b.lo, b.ul, b.last
    3bf4:	1b000443 	madd	w3, w2, w0, w1
    3bf8:	0b030040 	add	w0, w2, w3
    3bfc:	6b00007f 	cmp	w3, w0
    3c00:	54002562 	b.cs	40ac <interp_._omp_fn.1+0xd38>  // b.hs, b.nlast
    3c04:	b94113f8 	ldr	w24, [sp, #272]
    3c08:	51000440 	sub	w0, w2, #0x1
    3c0c:	f94006c4 	ldr	x4, [x22, #8]
    3c10:	b90083e0 	str	w0, [sp, #128]
    3c14:	93407f01 	sxtw	x1, w24
    3c18:	1e6c1010 	fmov	d16, #5.000000000000000000e-01
    3c1c:	1ad9086f 	udiv	w15, w3, w25
    3c20:	1e6a1007 	fmov	d7, #2.500000000000000000e-01
    3c24:	b940008c 	ldr	w12, [x4]
    3c28:	cb010fe2 	neg	x2, x1, lsl #3
    3c2c:	91004042 	add	x2, x2, #0x10
    3c30:	f90087e2 	str	x2, [sp, #264]
    3c34:	4b1b0191 	sub	w17, w12, w27
    3c38:	51000992 	sub	w18, w12, #0x2
    3c3c:	51000622 	sub	w2, w17, #0x1
    3c40:	32000248 	orr	w8, w18, #0x1
    3c44:	121f7849 	and	w9, w2, #0xfffffffe
    3c48:	53017e4d 	lsr	w13, w18, #1
    3c4c:	0b1b0129 	add	w9, w9, w27
    3c50:	531f7906 	lsl	w6, w8, #1
    3c54:	53017c4e 	lsr	w14, w2, #1
    3c58:	121f7a45 	and	w5, w18, #0xfffffffe
    3c5c:	531f792a 	lsl	w10, w9, #1
    3c60:	110008c7 	add	w7, w6, #0x2
    3c64:	11000950 	add	w16, w10, #0x2
    3c68:	510005ad 	sub	w13, w13, #0x1
    3c6c:	510005ce 	sub	w14, w14, #0x1
    3c70:	b9009be2 	str	w2, [sp, #152]
    3c74:	51000582 	sub	w2, w12, #0x1
    3c78:	1b198deb 	msub	w11, w15, w25, w3
    3c7c:	4b1800e7 	sub	w7, w7, w24
    3c80:	4b1800c6 	sub	w6, w6, w24
    3c84:	910005ad 	add	x13, x13, #0x1
    3c88:	110008b8 	add	w24, w5, #0x2
    3c8c:	4b1b0210 	sub	w16, w16, w27
    3c90:	11000ca5 	add	w5, w5, #0x3
    3c94:	910005ce 	add	x14, x14, #0x1
    3c98:	11000539 	add	w25, w9, #0x1
    3c9c:	f94002c0 	ldr	x0, [x22]
    3ca0:	d37ff843 	lsl	x3, x2, #1
    3ca4:	93407d1e 	sxtw	x30, w8
    3ca8:	4b1b014a 	sub	w10, w10, w27
    3cac:	9100085a 	add	x26, x2, #0x2
    3cb0:	2a1203e2 	mov	w2, w18
    3cb4:	6f03f406 	fmov	v6.2d, #5.000000000000000000e-01
    3cb8:	b90097f2 	str	w18, [sp, #148]
    3cbc:	6f02f605 	fmov	v5.2d, #2.500000000000000000e-01
    3cc0:	b9408ff2 	ldr	w18, [sp, #140]
    3cc4:	f94012c8 	ldr	x8, [x22, #32]
    3cc8:	cb010381 	sub	x1, x28, x1
    3ccc:	93407ca5 	sxtw	x5, w5
    3cd0:	93407e10 	sxtw	x16, w16
    3cd4:	93407d29 	sxtw	x9, w9
    3cd8:	d37f7e24 	ubfiz	x4, x17, #1, #32
    3cdc:	110005ef 	add	w15, w15, #0x1
    3ce0:	0b17016b 	add	w11, w11, w23
    3ce4:	d37cedad 	lsl	x13, x13, #4
    3ce8:	d37cedce 	lsl	x14, x14, #4
    3cec:	93407ce7 	sxtw	x7, w7
    3cf0:	93407cc6 	sxtw	x6, w6
    3cf4:	d1000484 	sub	x4, x4, #0x1
    3cf8:	93407d4a 	sxtw	x10, w10
    3cfc:	91000463 	add	x3, x3, #0x1
    3d00:	a90a07e4 	stp	x4, x1, [sp, #160]
    3d04:	91004001 	add	x1, x0, #0x10
    3d08:	f9005be3 	str	x3, [sp, #176]
    3d0c:	f9005fe6 	str	x6, [sp, #184]
    3d10:	b900c3f8 	str	w24, [sp, #192]
    3d14:	f9006fe9 	str	x9, [sp, #216]
    3d18:	93407f29 	sxtw	x9, w25
    3d1c:	b900e3f9 	str	w25, [sp, #224]
    3d20:	a90e97e7 	stp	x7, x5, [sp, #232]
    3d24:	93407f05 	sxtw	x5, w24
    3d28:	a90cabe5 	stp	x5, x10, [sp, #200]
    3d2c:	f9007ff0 	str	x16, [sp, #248]
    3d30:	52800010 	mov	w16, #0x0                   	// #0
    3d34:	f90083e9 	str	x9, [sp, #256]
    3d38:	f9008fe2 	str	x2, [sp, #280]
    3d3c:	f90093e1 	str	x1, [sp, #288]
    3d40:	f90097f6 	str	x22, [sp, #296]
    3d44:	d503201f 	nop
    3d48:	6b0c037f 	cmp	w27, w12
    3d4c:	54000b6a 	b.ge	3eb8 <interp_._omp_fn.1+0xb44>  // b.tcont
    3d50:	531f79e2 	lsl	w2, w15, #1
    3d54:	531f7969 	lsl	w9, w11, #1
    3d58:	4b120042 	sub	w2, w2, w18
    3d5c:	110005e3 	add	w3, w15, #0x1
    3d60:	f94037e5 	ldr	x5, [sp, #104]
    3d64:	93407c42 	sxtw	x2, w2
    3d68:	4b170129 	sub	w9, w9, w23
    3d6c:	93407c63 	sxtw	x3, w3
    3d70:	93407d6a 	sxtw	x10, w11
    3d74:	93407f64 	sxtw	x4, w27
    3d78:	9b057c42 	mul	x2, x2, x5
    3d7c:	93407d29 	sxtw	x9, w9
    3d80:	f9403be5 	ldr	x5, [sp, #112]
    3d84:	9b147c63 	mul	x3, x3, x20
    3d88:	9b157d4a 	mul	x10, x10, x21
    3d8c:	8b040381 	add	x1, x28, x4
    3d90:	cb140067 	sub	x7, x3, x20
    3d94:	8b040276 	add	x22, x19, x4
    3d98:	9b057d29 	mul	x9, x9, x5
    3d9c:	8b0a0065 	add	x5, x3, x10
    3da0:	8b1600a5 	add	x5, x5, x22
    3da4:	8b030263 	add	x3, x19, x3
    3da8:	8b090046 	add	x6, x2, x9
    3dac:	8b1100b8 	add	x24, x5, x17
    3db0:	8b060021 	add	x1, x1, x6
    3db4:	8b0a00e6 	add	x6, x7, x10
    3db8:	8b1600c6 	add	x6, x6, x22
    3dbc:	8b180c18 	add	x24, x0, x24, lsl #3
    3dc0:	f94053f6 	ldr	x22, [sp, #160]
    3dc4:	8b060239 	add	x25, x17, x6
    3dc8:	8b050c05 	add	x5, x0, x5, lsl #3
    3dcc:	8b060c06 	add	x6, x0, x6, lsl #3
    3dd0:	8b0102d6 	add	x22, x22, x1
    3dd4:	8b010d01 	add	x1, x8, x1, lsl #3
    3dd8:	eb01031f 	cmp	x24, x1
    3ddc:	8b190c19 	add	x25, x0, x25, lsl #3
    3de0:	8b160d16 	add	x22, x8, x22, lsl #3
    3de4:	8b020382 	add	x2, x28, x2
    3de8:	fa4582c0 	ccmp	x22, x5, #0x0, hi  // hi = pmore
    3dec:	8b070267 	add	x7, x19, x7
    3df0:	1a9f87f8 	cset	w24, ls  // ls = plast
    3df4:	eb19003f 	cmp	x1, x25
    3df8:	b9409bf9 	ldr	w25, [sp, #152]
    3dfc:	fa4632c0 	ccmp	x22, x6, #0x0, cc  // cc = lo, ul, last
    3e00:	1a9f87f6 	cset	w22, ls  // ls = plast
    3e04:	8b090042 	add	x2, x2, x9
    3e08:	7100233f 	cmp	w25, #0x8
    3e0c:	0a160318 	and	w24, w24, w22
    3e10:	1a9f97f6 	cset	w22, hi  // hi = pmore
    3e14:	8b0a0063 	add	x3, x3, x10
    3e18:	8b0a00e7 	add	x7, x7, x10
    3e1c:	6a1802df 	tst	w22, w24
    3e20:	540056c0 	b.eq	48f8 <interp_._omp_fn.1+0x1584>  // b.none
    3e24:	d2800004 	mov	x4, #0x0                   	// #0
    3e28:	3ce468a2 	ldr	q2, [x5, x4]
    3e2c:	aa0103e9 	mov	x9, x1
    3e30:	3ce468c3 	ldr	q3, [x6, x4]
    3e34:	91004084 	add	x4, x4, #0x10
    3e38:	4c408c20 	ld2	{v0.2d, v1.2d}, [x1]
    3e3c:	91008021 	add	x1, x1, #0x20
    3e40:	4e63d442 	fadd	v2.2d, v2.2d, v3.2d
    3e44:	4e66cc40 	fmla	v0.2d, v2.2d, v6.2d
    3e48:	fc010520 	str	d0, [x9], #16
    3e4c:	4d008520 	st1	{v0.d}[1], [x9]
    3e50:	eb0e009f 	cmp	x4, x14
    3e54:	54fffea1 	b.ne	3e28 <interp_._omp_fn.1+0xab4>  // b.any
    3e58:	a94d07e5 	ldp	x5, x1, [sp, #208]
    3e5c:	8b010064 	add	x4, x3, x1
    3e60:	8b0100e1 	add	x1, x7, x1
    3e64:	8b050045 	add	x5, x2, x5
    3e68:	fc617802 	ldr	d2, [x0, x1, lsl #3]
    3e6c:	fc647801 	ldr	d1, [x0, x4, lsl #3]
    3e70:	fc657900 	ldr	d0, [x8, x5, lsl #3]
    3e74:	b940e3e1 	ldr	w1, [sp, #224]
    3e78:	1e622821 	fadd	d1, d1, d2
    3e7c:	1f500020 	fmadd	d0, d1, d16, d0
    3e80:	fc257900 	str	d0, [x8, x5, lsl #3]
    3e84:	6b01019f 	cmp	w12, w1
    3e88:	5400018d 	b.le	3eb8 <interp_._omp_fn.1+0xb44>
    3e8c:	f94083e1 	ldr	x1, [sp, #256]
    3e90:	8b010063 	add	x3, x3, x1
    3e94:	8b0100e7 	add	x7, x7, x1
    3e98:	f9407fe1 	ldr	x1, [sp, #248]
    3e9c:	fc637801 	ldr	d1, [x0, x3, lsl #3]
    3ea0:	fc677802 	ldr	d2, [x0, x7, lsl #3]
    3ea4:	8b010042 	add	x2, x2, x1
    3ea8:	1e622821 	fadd	d1, d1, d2
    3eac:	fc627900 	ldr	d0, [x8, x2, lsl #3]
    3eb0:	1f500020 	fmadd	d0, d1, d16, d0
    3eb4:	fc227900 	str	d0, [x8, x2, lsl #3]
    3eb8:	7100059f 	cmp	w12, #0x1
    3ebc:	54000e4d 	b.le	4084 <interp_._omp_fn.1+0xd10>
    3ec0:	531f79e2 	lsl	w2, w15, #1
    3ec4:	531f7967 	lsl	w7, w11, #1
    3ec8:	4b120042 	sub	w2, w2, w18
    3ecc:	110005e5 	add	w5, w15, #0x1
    3ed0:	f94037e1 	ldr	x1, [sp, #104]
    3ed4:	93407c42 	sxtw	x2, w2
    3ed8:	4b1700e7 	sub	w7, w7, w23
    3edc:	93407ca5 	sxtw	x5, w5
    3ee0:	93407d6a 	sxtw	x10, w11
    3ee4:	9b017c42 	mul	x2, x2, x1
    3ee8:	93407ce7 	sxtw	x7, w7
    3eec:	f9403be1 	ldr	x1, [sp, #112]
    3ef0:	9b147ca5 	mul	x5, x5, x20
    3ef4:	9b157d4a 	mul	x10, x10, x21
    3ef8:	cb1400a6 	sub	x6, x5, x20
    3efc:	9b017ce7 	mul	x7, x7, x1
    3f00:	8b0a00c3 	add	x3, x6, x10
    3f04:	f94057e1 	ldr	x1, [sp, #168]
    3f08:	8b0200e9 	add	x9, x7, x2
    3f0c:	f9405bf8 	ldr	x24, [sp, #176]
    3f10:	8b130063 	add	x3, x3, x19
    3f14:	8b090029 	add	x9, x1, x9
    3f18:	8b1a0076 	add	x22, x3, x26
    3f1c:	91000921 	add	x1, x9, #0x2
    3f20:	8b130144 	add	x4, x10, x19
    3f24:	91000463 	add	x3, x3, #0x1
    3f28:	8b050084 	add	x4, x4, x5
    3f2c:	8b090309 	add	x9, x24, x9
    3f30:	8b160c16 	add	x22, x0, x22, lsl #3
    3f34:	8b010d01 	add	x1, x8, x1, lsl #3
    3f38:	8b1a0098 	add	x24, x4, x26
    3f3c:	d37df063 	lsl	x3, x3, #3
    3f40:	91000484 	add	x4, x4, #0x1
    3f44:	8b090d09 	add	x9, x8, x9, lsl #3
    3f48:	eb0102df 	cmp	x22, x1
    3f4c:	8b030016 	add	x22, x0, x3
    3f50:	8b180c18 	add	x24, x0, x24, lsl #3
    3f54:	fa4982c2 	ccmp	x22, x9, #0x2, hi  // hi = pmore
    3f58:	d37df084 	lsl	x4, x4, #3
    3f5c:	1a9f37f9 	cset	w25, cs  // cs = hs, nlast
    3f60:	eb18003f 	cmp	x1, x24
    3f64:	8b040018 	add	x24, x0, x4
    3f68:	8b020382 	add	x2, x28, x2
    3f6c:	fa493302 	ccmp	x24, x9, #0x2, cc  // cc = lo, ul, last
    3f70:	b94097e9 	ldr	w9, [sp, #148]
    3f74:	8b070042 	add	x2, x2, x7
    3f78:	1a9f37e7 	cset	w7, cs  // cs = hs, nlast
    3f7c:	7100093f 	cmp	w9, #0x2
    3f80:	8b060266 	add	x6, x19, x6
    3f84:	8b050265 	add	x5, x19, x5
    3f88:	0a070327 	and	w7, w25, w7
    3f8c:	1a9f97e9 	cset	w9, hi  // hi = pmore
    3f90:	8b0a00c6 	add	x6, x6, x10
    3f94:	8b0a00a5 	add	x5, x5, x10
    3f98:	6a07013f 	tst	w9, w7
    3f9c:	540047e0 	b.eq	4898 <interp_._omp_fn.1+0x1524>  // b.none
    3fa0:	91002084 	add	x4, x4, #0x8
    3fa4:	91002063 	add	x3, x3, #0x8
    3fa8:	8b040004 	add	x4, x0, x4
    3fac:	8b030003 	add	x3, x0, x3
    3fb0:	d2800007 	mov	x7, #0x0                   	// #0
    3fb4:	d503201f 	nop
    3fb8:	3ce76b01 	ldr	q1, [x24, x7]
    3fbc:	aa0103e9 	mov	x9, x1
    3fc0:	3ce76880 	ldr	q0, [x4, x7]
    3fc4:	3ce76864 	ldr	q4, [x3, x7]
    3fc8:	4e61d400 	fadd	v0.2d, v0.2d, v1.2d
    3fcc:	3ce76ac1 	ldr	q1, [x22, x7]
    3fd0:	910040e7 	add	x7, x7, #0x10
    3fd4:	4c408c22 	ld2	{v2.2d, v3.2d}, [x1]
    3fd8:	91008021 	add	x1, x1, #0x20
    3fdc:	4e64d400 	fadd	v0.2d, v0.2d, v4.2d
    3fe0:	4e61d400 	fadd	v0.2d, v0.2d, v1.2d
    3fe4:	4e65cc02 	fmla	v2.2d, v0.2d, v5.2d
    3fe8:	fc010522 	str	d2, [x9], #16
    3fec:	4d008522 	st1	{v2.d}[1], [x9]
    3ff0:	eb0d00ff 	cmp	x7, x13
    3ff4:	54fffe21 	b.ne	3fb8 <interp_._omp_fn.1+0xc44>  // b.any
    3ff8:	f94067e1 	ldr	x1, [sp, #200]
    3ffc:	8b0503c3 	add	x3, x30, x5
    4000:	8b050027 	add	x7, x1, x5
    4004:	8b060024 	add	x4, x1, x6
    4008:	fc637800 	ldr	d0, [x0, x3, lsl #3]
    400c:	8b0603c1 	add	x1, x30, x6
    4010:	f9405fe3 	ldr	x3, [sp, #184]
    4014:	fc677801 	ldr	d1, [x0, x7, lsl #3]
    4018:	fc647803 	ldr	d3, [x0, x4, lsl #3]
    401c:	8b020063 	add	x3, x3, x2
    4020:	fc617802 	ldr	d2, [x0, x1, lsl #3]
    4024:	1e612800 	fadd	d0, d0, d1
    4028:	b940c3e1 	ldr	w1, [sp, #192]
    402c:	fc637901 	ldr	d1, [x8, x3, lsl #3]
    4030:	1e632800 	fadd	d0, d0, d3
    4034:	1e622800 	fadd	d0, d0, d2
    4038:	1f470400 	fmadd	d0, d0, d7, d1
    403c:	fc237900 	str	d0, [x8, x3, lsl #3]
    4040:	6b0c003f 	cmp	w1, w12
    4044:	5400020a 	b.ge	4084 <interp_._omp_fn.1+0xd10>  // b.tcont
    4048:	f9407be1 	ldr	x1, [sp, #240]
    404c:	fc677804 	ldr	d4, [x0, x7, lsl #3]
    4050:	8b0100a5 	add	x5, x5, x1
    4054:	8b0100c6 	add	x6, x6, x1
    4058:	fc647802 	ldr	d2, [x0, x4, lsl #3]
    405c:	f94077e1 	ldr	x1, [sp, #232]
    4060:	fc657800 	ldr	d0, [x0, x5, lsl #3]
    4064:	fc667803 	ldr	d3, [x0, x6, lsl #3]
    4068:	8b010042 	add	x2, x2, x1
    406c:	1e642800 	fadd	d0, d0, d4
    4070:	fc627901 	ldr	d1, [x8, x2, lsl #3]
    4074:	1e632800 	fadd	d0, d0, d3
    4078:	1e622800 	fadd	d0, d0, d2
    407c:	1f470400 	fmadd	d0, d0, d7, d1
    4080:	fc227900 	str	d0, [x8, x2, lsl #3]
    4084:	b94083e1 	ldr	w1, [sp, #128]
    4088:	6b01021f 	cmp	w16, w1
    408c:	540000e0 	b.eq	40a8 <interp_._omp_fn.1+0xd34>  // b.none
    4090:	b9407be1 	ldr	w1, [sp, #120]
    4094:	1100056b 	add	w11, w11, #0x1
    4098:	6b0b003f 	cmp	w1, w11
    409c:	540037ed 	b.le	4798 <interp_._omp_fn.1+0x1424>
    40a0:	11000610 	add	w16, w16, #0x1
    40a4:	17ffff29 	b	3d48 <interp_._omp_fn.1+0x9d4>
    40a8:	f94097f6 	ldr	x22, [sp, #296]
    40ac:	97fff595 	bl	1700 <GOMP_barrier@plt>
    40b0:	a94102c1 	ldp	x1, x0, [x22, #16]
    40b4:	b9400021 	ldr	w1, [x1]
    40b8:	b9400000 	ldr	w0, [x0]
    40bc:	b900bbe1 	str	w1, [sp, #184]
    40c0:	51000439 	sub	w25, w1, #0x1
    40c4:	51000418 	sub	w24, w0, #0x1
    40c8:	7100041f 	cmp	w0, #0x1
    40cc:	5400358d 	b.le	477c <interp_._omp_fn.1+0x1408>
    40d0:	7100043f 	cmp	w1, #0x1
    40d4:	5400354d 	b.le	477c <interp_._omp_fn.1+0x1408>
    40d8:	1b197f18 	mul	w24, w24, w25
    40dc:	97fff539 	bl	15c0 <omp_get_num_threads@plt>
    40e0:	2a0003f7 	mov	w23, w0
    40e4:	97fff55f 	bl	1660 <omp_get_thread_num@plt>
    40e8:	1ad70b01 	udiv	w1, w24, w23
    40ec:	1b17e022 	msub	w2, w1, w23, w24
    40f0:	6b02001f 	cmp	w0, w2
    40f4:	54004a63 	b.cc	4a40 <interp_._omp_fn.1+0x16cc>  // b.lo, b.ul, b.last
    40f8:	1b000820 	madd	w0, w1, w0, w2
    40fc:	0b000022 	add	w2, w1, w0
    4100:	6b02001f 	cmp	w0, w2
    4104:	540033c2 	b.cs	477c <interp_._omp_fn.1+0x1408>  // b.hs, b.nlast
    4108:	f94006c5 	ldr	x5, [x22, #8]
    410c:	51000421 	sub	w1, w1, #0x1
    4110:	b94113e7 	ldr	w7, [sp, #272]
    4114:	aa1303fe 	mov	x30, x19
    4118:	1ad90804 	udiv	w4, w0, w25
    411c:	b900b3e1 	str	w1, [sp, #176]
    4120:	b94000b8 	ldr	w24, [x5]
    4124:	1e6a1006 	fmov	d6, #2.500000000000000000e-01
    4128:	93407ce2 	sxtw	x2, w7
    412c:	b90097fb 	str	w27, [sp, #148]
    4130:	51000b10 	sub	w16, w24, #0x2
    4134:	4b1b0305 	sub	w5, w24, w27
    4138:	3200020b 	orr	w11, w16, #0x1
    413c:	1b19808f 	msub	w15, w4, w25, w0
    4140:	cb020fe3 	neg	x3, x2, lsl #3
    4144:	cb020380 	sub	x0, x28, x2
    4148:	531f7969 	lsl	w9, w11, #1
    414c:	91004063 	add	x3, x3, #0x10
    4150:	1100092a 	add	w10, w9, #0x2
    4154:	f9007be0 	str	x0, [sp, #240]
    4158:	4b07014a 	sub	w10, w10, w7
    415c:	53017e00 	lsr	w0, w16, #1
    4160:	51000400 	sub	w0, w0, #0x1
    4164:	510004a2 	sub	w2, w5, #0x1
    4168:	93407d4a 	sxtw	x10, w10
    416c:	a9150fea 	stp	x10, x3, [sp, #336]
    4170:	121f7a03 	and	w3, w16, #0xfffffffe
    4174:	11000872 	add	w18, w3, #0x2
    4178:	91000400 	add	x0, x0, #0x1
    417c:	11000c63 	add	w3, w3, #0x3
    4180:	121f784c 	and	w12, w2, #0xfffffffe
    4184:	d37cec1a 	lsl	x26, x0, #4
    4188:	51000706 	sub	w6, w24, #0x1
    418c:	93407c60 	sxtw	x0, w3
    4190:	d37f7ca8 	ubfiz	x8, x5, #1, #32
    4194:	f900a7e0 	str	x0, [sp, #328]
    4198:	93407e40 	sxtw	x0, w18
    419c:	0b1b018c 	add	w12, w12, w27
    41a0:	b900dbe2 	str	w2, [sp, #216]
    41a4:	53017c42 	lsr	w2, w2, #1
    41a8:	f9008be0 	str	x0, [sp, #272]
    41ac:	d1000500 	sub	x0, x8, #0x1
    41b0:	4b070129 	sub	w9, w9, w7
    41b4:	51000442 	sub	w2, w2, #0x1
    41b8:	d37ff8c7 	lsl	x7, x6, #1
    41bc:	f90073e0 	str	x0, [sp, #224]
    41c0:	2a0503e0 	mov	w0, w5
    41c4:	531f798d 	lsl	w13, w12, #1
    41c8:	91000442 	add	x2, x2, #0x1
    41cc:	f9006be0 	str	x0, [sp, #208]
    41d0:	910004e0 	add	x0, x7, #0x1
    41d4:	110009ae 	add	w14, w13, #0x2
    41d8:	f9007fe0 	str	x0, [sp, #248]
    41dc:	910008c0 	add	x0, x6, #0x2
    41e0:	11000591 	add	w17, w12, #0x1
    41e4:	f94002c1 	ldr	x1, [x22]
    41e8:	4b1b01ce 	sub	w14, w14, w27
    41ec:	4b1b01ad 	sub	w13, w13, w27
    41f0:	d37cec42 	lsl	x2, x2, #4
    41f4:	6f02f604 	fmov	v4.2d, #2.500000000000000000e-01
    41f8:	f90077e0 	str	x0, [sp, #232]
    41fc:	6f02f401 	fmov	v1.2d, #1.250000000000000000e-01
    4200:	2a1003e0 	mov	w0, w16
    4204:	f94012ca 	ldr	x10, [x22, #32]
    4208:	93407d8c 	sxtw	x12, w12
    420c:	110005ef 	add	w15, w15, #0x1
    4210:	aa0203fb 	mov	x27, x2
    4214:	f9004ffc 	str	x28, [sp, #152]
    4218:	aa1403fc 	mov	x28, x20
    421c:	f900b3e0 	str	x0, [sp, #352]
    4220:	11000480 	add	w0, w4, #0x1
    4224:	93407dce 	sxtw	x14, w14
    4228:	93407dad 	sxtw	x13, w13
    422c:	93407d6b 	sxtw	x11, w11
    4230:	93407d29 	sxtw	x9, w9
    4234:	1e681005 	fmov	d5, #1.250000000000000000e-01
    4238:	b9007bff 	str	wzr, [sp, #120]
    423c:	b90083e0 	str	w0, [sp, #128]
    4240:	91006020 	add	x0, x1, #0x18
    4244:	b900cbf0 	str	w16, [sp, #200]
    4248:	f90083e9 	str	x9, [sp, #256]
    424c:	b9010bf2 	str	w18, [sp, #264]
    4250:	f9008feb 	str	x11, [sp, #280]
    4254:	b90123f1 	str	w17, [sp, #288]
    4258:	a912b3ed 	stp	x13, x12, [sp, #296]
    425c:	93407e2c 	sxtw	x12, w17
    4260:	f9009fec 	str	x12, [sp, #312]
    4264:	f900a3ee 	str	x14, [sp, #320]
    4268:	f900b7e0 	str	x0, [sp, #360]
    426c:	d503201f 	nop
    4270:	b94097e0 	ldr	w0, [sp, #148]
    4274:	6b18001f 	cmp	w0, w24
    4278:	540010aa 	b.ge	448c <interp_._omp_fn.1+0x1118>  // b.tcont
    427c:	b94083e0 	ldr	w0, [sp, #128]
    4280:	531f79e9 	lsl	w9, w15, #1
    4284:	f94037e6 	ldr	x6, [sp, #104]
    4288:	11000403 	add	w3, w0, #0x1
    428c:	531f7802 	lsl	w2, w0, #1
    4290:	b9408fe0 	ldr	w0, [sp, #140]
    4294:	110005e5 	add	w5, w15, #0x1
    4298:	93407c63 	sxtw	x3, w3
    429c:	4b000042 	sub	w2, w2, w0
    42a0:	b94093e0 	ldr	w0, [sp, #144]
    42a4:	93407ca5 	sxtw	x5, w5
    42a8:	b98097e4 	ldrsw	x4, [sp, #148]
    42ac:	93407c42 	sxtw	x2, w2
    42b0:	4b000129 	sub	w9, w9, w0
    42b4:	9b1c7c63 	mul	x3, x3, x28
    42b8:	93407d29 	sxtw	x9, w9
    42bc:	9b157ca5 	mul	x5, x5, x21
    42c0:	9b067c42 	mul	x2, x2, x6
    42c4:	cb1c0067 	sub	x7, x3, x28
    42c8:	f9403be6 	ldr	x6, [sp, #112]
    42cc:	8b0703c7 	add	x7, x30, x7
    42d0:	f9404ff6 	ldr	x22, [sp, #152]
    42d4:	8b0700ad 	add	x13, x5, x7
    42d8:	9b067d29 	mul	x9, x9, x6
    42dc:	8b0401ac 	add	x12, x13, x4
    42e0:	8b0402c0 	add	x0, x22, x4
    42e4:	8b0303c3 	add	x3, x30, x3
    42e8:	8b020126 	add	x6, x9, x2
    42ec:	8b0400a8 	add	x8, x5, x4
    42f0:	f9406bf2 	ldr	x18, [sp, #208]
    42f4:	8b060000 	add	x0, x0, x6
    42f8:	f94073e6 	ldr	x6, [sp, #224]
    42fc:	8b12018b 	add	x11, x12, x18
    4300:	cb1500b1 	sub	x17, x5, x21
    4304:	8b030108 	add	x8, x8, x3
    4308:	8b0000ce 	add	x14, x6, x0
    430c:	8b080250 	add	x16, x18, x8
    4310:	8b000d40 	add	x0, x10, x0, lsl #3
    4314:	8b0b0c2b 	add	x11, x1, x11, lsl #3
    4318:	8b040226 	add	x6, x17, x4
    431c:	8b0e0d4e 	add	x14, x10, x14, lsl #3
    4320:	eb00017f 	cmp	x11, x0
    4324:	8b0c0c2c 	add	x12, x1, x12, lsl #3
    4328:	8b0600eb 	add	x11, x7, x6
    432c:	fa4e8182 	ccmp	x12, x14, #0x2, hi  // hi = pmore
    4330:	8b120173 	add	x19, x11, x18
    4334:	8b100c30 	add	x16, x1, x16, lsl #3
    4338:	8b060066 	add	x6, x3, x6
    433c:	1a9f37f4 	cset	w20, cs  // cs = hs, nlast
    4340:	8b080c28 	add	x8, x1, x8, lsl #3
    4344:	eb10001f 	cmp	x0, x16
    4348:	fa4e3102 	ccmp	x8, x14, #0x2, cc  // cc = lo, ul, last
    434c:	8b1200d2 	add	x18, x6, x18
    4350:	8b130c33 	add	x19, x1, x19, lsl #3
    4354:	1a9f37f0 	cset	w16, cs  // cs = hs, nlast
    4358:	8b0b0c2b 	add	x11, x1, x11, lsl #3
    435c:	eb00027f 	cmp	x19, x0
    4360:	fa4e8162 	ccmp	x11, x14, #0x2, hi  // hi = pmore
    4364:	8b120c32 	add	x18, x1, x18, lsl #3
    4368:	8b0202c2 	add	x2, x22, x2
    436c:	8b060c26 	add	x6, x1, x6, lsl #3
    4370:	8b090042 	add	x2, x2, x9
    4374:	1a9f37e9 	cset	w9, cs  // cs = hs, nlast
    4378:	eb00025f 	cmp	x18, x0
    437c:	b940dbf2 	ldr	w18, [sp, #216]
    4380:	fa4e80c2 	ccmp	x6, x14, #0x2, hi  // hi = pmore
    4384:	0a100290 	and	w16, w20, w16
    4388:	1a9f37ee 	cset	w14, cs  // cs = hs, nlast
    438c:	71000e5f 	cmp	w18, #0x3
    4390:	0a0e0129 	and	w9, w9, w14
    4394:	1a9f97ee 	cset	w14, hi  // hi = pmore
    4398:	0a090210 	and	w16, w16, w9
    439c:	8b050065 	add	x5, x3, x5
    43a0:	8b070227 	add	x7, x17, x7
    43a4:	8b110063 	add	x3, x3, x17
    43a8:	6a1001df 	tst	w14, w16
    43ac:	54003060 	b.eq	49b8 <interp_._omp_fn.1+0x1644>  // b.none
    43b0:	d2800004 	mov	x4, #0x0                   	// #0
    43b4:	d503201f 	nop
    43b8:	3ce46902 	ldr	q2, [x8, x4]
    43bc:	aa0003e9 	mov	x9, x0
    43c0:	3ce468c0 	ldr	q0, [x6, x4]
    43c4:	3ce46990 	ldr	q16, [x12, x4]
    43c8:	4e62d400 	fadd	v0.2d, v0.2d, v2.2d
    43cc:	3ce46967 	ldr	q7, [x11, x4]
    43d0:	91004084 	add	x4, x4, #0x10
    43d4:	4c408c02 	ld2	{v2.2d, v3.2d}, [x0]
    43d8:	91008000 	add	x0, x0, #0x20
    43dc:	4e70d400 	fadd	v0.2d, v0.2d, v16.2d
    43e0:	4e67d400 	fadd	v0.2d, v0.2d, v7.2d
    43e4:	4e64cc02 	fmla	v2.2d, v0.2d, v4.2d
    43e8:	fc010522 	str	d2, [x9], #16
    43ec:	4d008522 	st1	{v2.d}[1], [x9]
    43f0:	eb1b009f 	cmp	x4, x27
    43f4:	54fffe21 	b.ne	43b8 <interp_._omp_fn.1+0x1044>  // b.any
    43f8:	f9409be8 	ldr	x8, [sp, #304]
    43fc:	8b030104 	add	x4, x8, x3
    4400:	8b050106 	add	x6, x8, x5
    4404:	8b0d0100 	add	x0, x8, x13
    4408:	fc647822 	ldr	d2, [x1, x4, lsl #3]
    440c:	8b070104 	add	x4, x8, x7
    4410:	fc667820 	ldr	d0, [x1, x6, lsl #3]
    4414:	fc607827 	ldr	d7, [x1, x0, lsl #3]
    4418:	fc647823 	ldr	d3, [x1, x4, lsl #3]
    441c:	1e622800 	fadd	d0, d0, d2
    4420:	f94097e0 	ldr	x0, [sp, #296]
    4424:	1e672800 	fadd	d0, d0, d7
    4428:	8b020000 	add	x0, x0, x2
    442c:	fc607942 	ldr	d2, [x10, x0, lsl #3]
    4430:	1e632800 	fadd	d0, d0, d3
    4434:	1f460800 	fmadd	d0, d0, d6, d2
    4438:	fc207940 	str	d0, [x10, x0, lsl #3]
    443c:	b94123e0 	ldr	w0, [sp, #288]
    4440:	6b18001f 	cmp	w0, w24
    4444:	5400024a 	b.ge	448c <interp_._omp_fn.1+0x1118>  // b.tcont
    4448:	f9409fe0 	ldr	x0, [sp, #312]
    444c:	8b000063 	add	x3, x3, x0
    4450:	8b0000a5 	add	x5, x5, x0
    4454:	8b0001ad 	add	x13, x13, x0
    4458:	8b0000e7 	add	x7, x7, x0
    445c:	f940a3e0 	ldr	x0, [sp, #320]
    4460:	fc657822 	ldr	d2, [x1, x5, lsl #3]
    4464:	fc637820 	ldr	d0, [x1, x3, lsl #3]
    4468:	8b000042 	add	x2, x2, x0
    446c:	fc6d7827 	ldr	d7, [x1, x13, lsl #3]
    4470:	fc677823 	ldr	d3, [x1, x7, lsl #3]
    4474:	1e622800 	fadd	d0, d0, d2
    4478:	fc627942 	ldr	d2, [x10, x2, lsl #3]
    447c:	1e672800 	fadd	d0, d0, d7
    4480:	1e632800 	fadd	d0, d0, d3
    4484:	1f460800 	fmadd	d0, d0, d6, d2
    4488:	fc227940 	str	d0, [x10, x2, lsl #3]
    448c:	7100071f 	cmp	w24, #0x1
    4490:	540015ed 	b.le	474c <interp_._omp_fn.1+0x13d8>
    4494:	b94083e0 	ldr	w0, [sp, #128]
    4498:	531f79e9 	lsl	w9, w15, #1
    449c:	110005eb 	add	w11, w15, #0x1
    44a0:	1100040e 	add	w14, w0, #0x1
    44a4:	531f7802 	lsl	w2, w0, #1
    44a8:	b9408fe0 	ldr	w0, [sp, #140]
    44ac:	93407dce 	sxtw	x14, w14
    44b0:	93407d6b 	sxtw	x11, w11
    44b4:	4b000042 	sub	w2, w2, w0
    44b8:	b94093e0 	ldr	w0, [sp, #144]
    44bc:	f94077f2 	ldr	x18, [sp, #232]
    44c0:	4b000129 	sub	w9, w9, w0
    44c4:	f94037e0 	ldr	x0, [sp, #104]
    44c8:	93407c42 	sxtw	x2, w2
    44cc:	93407d29 	sxtw	x9, w9
    44d0:	9b1c7dce 	mul	x14, x14, x28
    44d4:	9b157d6b 	mul	x11, x11, x21
    44d8:	9b007c42 	mul	x2, x2, x0
    44dc:	8b0e03cd 	add	x13, x30, x14
    44e0:	f9403be0 	ldr	x0, [sp, #112]
    44e4:	8b0b01a8 	add	x8, x13, x11
    44e8:	f9407fe5 	ldr	x5, [sp, #248]
    44ec:	cb150170 	sub	x16, x11, x21
    44f0:	9b007d29 	mul	x9, x9, x0
    44f4:	cb1c01c0 	sub	x0, x14, x28
    44f8:	8b0003cc 	add	x12, x30, x0
    44fc:	f90063e0 	str	x0, [sp, #192]
    4500:	f9407be0 	ldr	x0, [sp, #240]
    4504:	8b020127 	add	x7, x9, x2
    4508:	8b0c0176 	add	x22, x11, x12
    450c:	91000506 	add	x6, x8, #0x1
    4510:	8b070007 	add	x7, x0, x7
    4514:	8b1202c3 	add	x3, x22, x18
    4518:	910008e0 	add	x0, x7, #0x2
    451c:	910006c4 	add	x4, x22, #0x1
    4520:	8b0700a7 	add	x7, x5, x7
    4524:	8b030c23 	add	x3, x1, x3, lsl #3
    4528:	8b000d40 	add	x0, x10, x0, lsl #3
    452c:	8b120105 	add	x5, x8, x18
    4530:	d37df084 	lsl	x4, x4, #3
    4534:	8b070d47 	add	x7, x10, x7, lsl #3
    4538:	8b0c020c 	add	x12, x16, x12
    453c:	eb00007f 	cmp	x3, x0
    4540:	8b040033 	add	x19, x1, x4
    4544:	8b050c25 	add	x5, x1, x5, lsl #3
    4548:	fa478262 	ccmp	x19, x7, #0x2, hi  // hi = pmore
    454c:	8b120191 	add	x17, x12, x18
    4550:	d37df0c6 	lsl	x6, x6, #3
    4554:	91000583 	add	x3, x12, #0x1
    4558:	1a9f37f9 	cset	w25, cs  // cs = hs, nlast
    455c:	8b060034 	add	x20, x1, x6
    4560:	eb05001f 	cmp	x0, x5
    4564:	8b110c31 	add	x17, x1, x17, lsl #3
    4568:	fa473282 	ccmp	x20, x7, #0x2, cc  // cc = lo, ul, last
    456c:	d37df063 	lsl	x3, x3, #3
    4570:	1a9f37f7 	cset	w23, cs  // cs = hs, nlast
    4574:	eb00023f 	cmp	x17, x0
    4578:	8b030031 	add	x17, x1, x3
    457c:	8b1001ad 	add	x13, x13, x16
    4580:	fa478222 	ccmp	x17, x7, #0x2, hi  // hi = pmore
    4584:	b900a3f7 	str	w23, [sp, #160]
    4588:	8b1201b2 	add	x18, x13, x18
    458c:	1a9f37f7 	cset	w23, cs  // cs = hs, nlast
    4590:	910005a5 	add	x5, x13, #0x1
    4594:	b900abf7 	str	w23, [sp, #168]
    4598:	b940a3f7 	ldr	w23, [sp, #160]
    459c:	8b120c32 	add	x18, x1, x18, lsl #3
    45a0:	d37df0a5 	lsl	x5, x5, #3
    45a4:	eb00025f 	cmp	x18, x0
    45a8:	0a170339 	and	w25, w25, w23
    45ac:	8b050032 	add	x18, x1, x5
    45b0:	b940cbf7 	ldr	w23, [sp, #200]
    45b4:	fa478242 	ccmp	x18, x7, #0x2, hi  // hi = pmore
    45b8:	1a9f37e7 	cset	w7, cs  // cs = hs, nlast
    45bc:	710006ff 	cmp	w23, #0x1
    45c0:	b940abf7 	ldr	w23, [sp, #168]
    45c4:	0a0702e7 	and	w7, w23, w7
    45c8:	f9404ff7 	ldr	x23, [sp, #152]
    45cc:	0a070339 	and	w25, w25, w7
    45d0:	1a9f97e7 	cset	w7, hi  // hi = pmore
    45d4:	8b0202e2 	add	x2, x23, x2
    45d8:	8b090042 	add	x2, x2, x9
    45dc:	6a1900ff 	tst	w7, w25
    45e0:	54001a80 	b.eq	4930 <interp_._omp_fn.1+0x15bc>  // b.none
    45e4:	910020c6 	add	x6, x6, #0x8
    45e8:	910020a5 	add	x5, x5, #0x8
    45ec:	91002084 	add	x4, x4, #0x8
    45f0:	91002063 	add	x3, x3, #0x8
    45f4:	8b060026 	add	x6, x1, x6
    45f8:	8b050025 	add	x5, x1, x5
    45fc:	8b040024 	add	x4, x1, x4
    4600:	8b030023 	add	x3, x1, x3
    4604:	d2800007 	mov	x7, #0x0                   	// #0
    4608:	3ce768c2 	ldr	q2, [x6, x7]
    460c:	aa0003e9 	mov	x9, x0
    4610:	3ce768a0 	ldr	q0, [x5, x7]
    4614:	3ce76a83 	ldr	q3, [x20, x7]
    4618:	4e62d400 	fadd	v0.2d, v0.2d, v2.2d
    461c:	3ce76a42 	ldr	q2, [x18, x7]
    4620:	3ce76892 	ldr	q18, [x4, x7]
    4624:	4e63d400 	fadd	v0.2d, v0.2d, v3.2d
    4628:	3ce76871 	ldr	q17, [x3, x7]
    462c:	3ce76a70 	ldr	q16, [x19, x7]
    4630:	4e62d400 	fadd	v0.2d, v0.2d, v2.2d
    4634:	3ce76a27 	ldr	q7, [x17, x7]
    4638:	910040e7 	add	x7, x7, #0x10
    463c:	4c408c02 	ld2	{v2.2d, v3.2d}, [x0]
    4640:	91008000 	add	x0, x0, #0x20
    4644:	4e72d400 	fadd	v0.2d, v0.2d, v18.2d
    4648:	4e71d400 	fadd	v0.2d, v0.2d, v17.2d
    464c:	4e70d400 	fadd	v0.2d, v0.2d, v16.2d
    4650:	4e67d400 	fadd	v0.2d, v0.2d, v7.2d
    4654:	4e61cc02 	fmla	v2.2d, v0.2d, v1.2d
    4658:	fc010522 	str	d2, [x9], #16
    465c:	4d008522 	st1	{v2.d}[1], [x9]
    4660:	eb1a00ff 	cmp	x7, x26
    4664:	54fffd21 	b.ne	4608 <interp_._omp_fn.1+0x1294>  // b.any
    4668:	a95127e4 	ldp	x4, x9, [sp, #272]
    466c:	8b080087 	add	x7, x4, x8
    4670:	8b0d0086 	add	x6, x4, x13
    4674:	8b080123 	add	x3, x9, x8
    4678:	8b0d0120 	add	x0, x9, x13
    467c:	8b160085 	add	x5, x4, x22
    4680:	8b0c0084 	add	x4, x4, x12
    4684:	fc667823 	ldr	d3, [x1, x6, lsl #3]
    4688:	fc677820 	ldr	d0, [x1, x7, lsl #3]
    468c:	fc637822 	ldr	d2, [x1, x3, lsl #3]
    4690:	8b160123 	add	x3, x9, x22
    4694:	fc607832 	ldr	d18, [x1, x0, lsl #3]
    4698:	8b0c0120 	add	x0, x9, x12
    469c:	1e632800 	fadd	d0, d0, d3
    46a0:	fc657831 	ldr	d17, [x1, x5, lsl #3]
    46a4:	fc647830 	ldr	d16, [x1, x4, lsl #3]
    46a8:	fc637827 	ldr	d7, [x1, x3, lsl #3]
    46ac:	fc607823 	ldr	d3, [x1, x0, lsl #3]
    46b0:	1e622800 	fadd	d0, d0, d2
    46b4:	b9410be0 	ldr	w0, [sp, #264]
    46b8:	f94083e3 	ldr	x3, [sp, #256]
    46bc:	1e722800 	fadd	d0, d0, d18
    46c0:	8b020063 	add	x3, x3, x2
    46c4:	fc637942 	ldr	d2, [x10, x3, lsl #3]
    46c8:	1e712800 	fadd	d0, d0, d17
    46cc:	1e702800 	fadd	d0, d0, d16
    46d0:	1e672800 	fadd	d0, d0, d7
    46d4:	1e632800 	fadd	d0, d0, d3
    46d8:	1f450800 	fmadd	d0, d0, d5, d2
    46dc:	fc237940 	str	d0, [x10, x3, lsl #3]
    46e0:	6b18001f 	cmp	w0, w24
    46e4:	5400034a 	b.ge	474c <interp_._omp_fn.1+0x13d8>  // b.tcont
    46e8:	f940a7e0 	ldr	x0, [sp, #328]
    46ec:	fc677833 	ldr	d19, [x1, x7, lsl #3]
    46f0:	8b0001ad 	add	x13, x13, x0
    46f4:	8b000108 	add	x8, x8, x0
    46f8:	fc667832 	ldr	d18, [x1, x6, lsl #3]
    46fc:	8b0002d6 	add	x22, x22, x0
    4700:	8b00018c 	add	x12, x12, x0
    4704:	fc657827 	ldr	d7, [x1, x5, lsl #3]
    4708:	fc687822 	ldr	d2, [x1, x8, lsl #3]
    470c:	fc6d7820 	ldr	d0, [x1, x13, lsl #3]
    4710:	fc767831 	ldr	d17, [x1, x22, lsl #3]
    4714:	fc6c7830 	ldr	d16, [x1, x12, lsl #3]
    4718:	1e622800 	fadd	d0, d0, d2
    471c:	fc647823 	ldr	d3, [x1, x4, lsl #3]
    4720:	f940abe0 	ldr	x0, [sp, #336]
    4724:	1e732800 	fadd	d0, d0, d19
    4728:	8b000042 	add	x2, x2, x0
    472c:	fc627942 	ldr	d2, [x10, x2, lsl #3]
    4730:	1e722800 	fadd	d0, d0, d18
    4734:	1e712800 	fadd	d0, d0, d17
    4738:	1e702800 	fadd	d0, d0, d16
    473c:	1e672800 	fadd	d0, d0, d7
    4740:	1e632800 	fadd	d0, d0, d3
    4744:	1f450800 	fmadd	d0, d0, d5, d2
    4748:	fc227940 	str	d0, [x10, x2, lsl #3]
    474c:	b9407be0 	ldr	w0, [sp, #120]
    4750:	b940b3e2 	ldr	w2, [sp, #176]
    4754:	6b02001f 	cmp	w0, w2
    4758:	54000120 	b.eq	477c <interp_._omp_fn.1+0x1408>  // b.none
    475c:	b940bbe0 	ldr	w0, [sp, #184]
    4760:	110005ef 	add	w15, w15, #0x1
    4764:	6b0f001f 	cmp	w0, w15
    4768:	5400150d 	b.le	4a08 <interp_._omp_fn.1+0x1694>
    476c:	b9407be0 	ldr	w0, [sp, #120]
    4770:	11000400 	add	w0, w0, #0x1
    4774:	b9007be0 	str	w0, [sp, #120]
    4778:	17fffebe 	b	4270 <interp_._omp_fn.1+0xefc>
    477c:	a94153f3 	ldp	x19, x20, [sp, #16]
    4780:	a9425bf5 	ldp	x21, x22, [sp, #32]
    4784:	a94363f7 	ldp	x23, x24, [sp, #48]
    4788:	a9446bf9 	ldp	x25, x26, [sp, #64]
    478c:	a94573fb 	ldp	x27, x28, [sp, #80]
    4790:	a8d77bfd 	ldp	x29, x30, [sp], #368
    4794:	d65f03c0 	ret
    4798:	110005ef 	add	w15, w15, #0x1
    479c:	2a1703eb 	mov	w11, w23
    47a0:	11000610 	add	w16, w16, #0x1
    47a4:	17fffd69 	b	3d48 <interp_._omp_fn.1+0x9d4>
    47a8:	11000610 	add	w16, w16, #0x1
    47ac:	11000652 	add	w18, w18, #0x1
    47b0:	5280002a 	mov	w10, #0x1                   	// #1
    47b4:	17fffc2b 	b	3860 <interp_._omp_fn.1+0x4ec>
    47b8:	1100054a 	add	w10, w10, #0x1
    47bc:	2a1703e5 	mov	w5, w23
    47c0:	1100056b 	add	w11, w11, #0x1
    47c4:	17fffb4d 	b	34f8 <interp_._omp_fn.1+0x184>
    47c8:	a94a83e1 	ldp	x1, x0, [sp, #168]
    47cc:	8b030c21 	add	x1, x1, x3, lsl #3
    47d0:	8b020000 	add	x0, x0, x2
    47d4:	f9405fe3 	ldr	x3, [sp, #184]
    47d8:	8b010101 	add	x1, x8, x1
    47dc:	8b020cc2 	add	x2, x6, x2, lsl #3
    47e0:	8b000c60 	add	x0, x3, x0, lsl #3
    47e4:	d503201f 	nop
    47e8:	fd400841 	ldr	d1, [x2, #16]
    47ec:	fc408c42 	ldr	d2, [x2, #8]!
    47f0:	fd400020 	ldr	d0, [x1]
    47f4:	1e622821 	fadd	d1, d1, d2
    47f8:	1f450020 	fmadd	d0, d1, d5, d0
    47fc:	fc010420 	str	d0, [x1], #16
    4800:	eb00005f 	cmp	x2, x0
    4804:	54ffff21 	b.ne	47e8 <interp_._omp_fn.1+0x1474>  // b.any
    4808:	17fffb9f 	b	3684 <interp_._omp_fn.1+0x310>
    480c:	a95207e0 	ldp	x0, x1, [sp, #288]
    4810:	8b040004 	add	x4, x0, x4
    4814:	f9408fe0 	ldr	x0, [sp, #280]
    4818:	8b040c24 	add	x4, x1, x4, lsl #3
    481c:	8b050c00 	add	x0, x0, x5, lsl #3
    4820:	8b000100 	add	x0, x8, x0
    4824:	d503201f 	nop
    4828:	91002061 	add	x1, x3, #0x8
    482c:	fc757863 	ldr	d3, [x3, x21, lsl #3]
    4830:	6d401062 	ldp	d2, d4, [x3]
    4834:	aa0103e3 	mov	x3, x1
    4838:	fc757820 	ldr	d0, [x1, x21, lsl #3]
    483c:	fd400001 	ldr	d1, [x0]
    4840:	1e642800 	fadd	d0, d0, d4
    4844:	1e632800 	fadd	d0, d0, d3
    4848:	1e622800 	fadd	d0, d0, d2
    484c:	1f470400 	fmadd	d0, d0, d7, d1
    4850:	fc010400 	str	d0, [x0], #16
    4854:	eb04003f 	cmp	x1, x4
    4858:	54fffe81 	b.ne	4828 <interp_._omp_fn.1+0x14b4>  // b.any
    485c:	17fffcc7 	b	3b78 <interp_._omp_fn.1+0x804>
    4860:	8b040021 	add	x1, x1, x4
    4864:	8b0b0c4b 	add	x11, x2, x11, lsl #3
    4868:	8b030c43 	add	x3, x2, x3, lsl #3
    486c:	8b010d01 	add	x1, x8, x1, lsl #3
    4870:	fc647961 	ldr	d1, [x11, x4, lsl #3]
    4874:	fc647862 	ldr	d2, [x3, x4, lsl #3]
    4878:	91000484 	add	x4, x4, #0x1
    487c:	fd400020 	ldr	d0, [x1]
    4880:	1e622821 	fadd	d1, d1, d2
    4884:	1f500020 	fmadd	d0, d1, d16, d0
    4888:	fc010420 	str	d0, [x1], #16
    488c:	6b04019f 	cmp	w12, w4
    4890:	54ffff0c 	b.gt	4870 <interp_._omp_fn.1+0x14fc>
    4894:	17fffc4c 	b	39c4 <interp_._omp_fn.1+0x650>
    4898:	f9408fe3 	ldr	x3, [sp, #280]
    489c:	910004c1 	add	x1, x6, #0x1
    48a0:	8b060066 	add	x6, x3, x6
    48a4:	8b010c01 	add	x1, x0, x1, lsl #3
    48a8:	f94087e3 	ldr	x3, [sp, #264]
    48ac:	8b020c62 	add	x2, x3, x2, lsl #3
    48b0:	f94093e3 	ldr	x3, [sp, #288]
    48b4:	8b020102 	add	x2, x8, x2
    48b8:	8b060c66 	add	x6, x3, x6, lsl #3
    48bc:	d503201f 	nop
    48c0:	91002023 	add	x3, x1, #0x8
    48c4:	fc747824 	ldr	d4, [x1, x20, lsl #3]
    48c8:	6d400c22 	ldp	d2, d3, [x1]
    48cc:	aa0303e1 	mov	x1, x3
    48d0:	fc747860 	ldr	d0, [x3, x20, lsl #3]
    48d4:	fd400041 	ldr	d1, [x2]
    48d8:	1e642800 	fadd	d0, d0, d4
    48dc:	1e632800 	fadd	d0, d0, d3
    48e0:	1e622800 	fadd	d0, d0, d2
    48e4:	1f470400 	fmadd	d0, d0, d7, d1
    48e8:	fc010440 	str	d0, [x2], #16
    48ec:	eb06007f 	cmp	x3, x6
    48f0:	54fffe81 	b.ne	48c0 <interp_._omp_fn.1+0x154c>  // b.any
    48f4:	17fffde4 	b	4084 <interp_._omp_fn.1+0xd10>
    48f8:	8b040042 	add	x2, x2, x4
    48fc:	8b030c03 	add	x3, x0, x3, lsl #3
    4900:	8b070c07 	add	x7, x0, x7, lsl #3
    4904:	8b020d02 	add	x2, x8, x2, lsl #3
    4908:	fc647861 	ldr	d1, [x3, x4, lsl #3]
    490c:	fc6478e2 	ldr	d2, [x7, x4, lsl #3]
    4910:	91000484 	add	x4, x4, #0x1
    4914:	fd400040 	ldr	d0, [x2]
    4918:	1e622821 	fadd	d1, d1, d2
    491c:	1f500020 	fmadd	d0, d1, d16, d0
    4920:	fc010440 	str	d0, [x2], #16
    4924:	6b04019f 	cmp	w12, w4
    4928:	54ffff0c 	b.gt	4908 <interp_._omp_fn.1+0x1594>
    492c:	17fffd63 	b	3eb8 <interp_._omp_fn.1+0xb44>
    4930:	f940afe3 	ldr	x3, [sp, #344]
    4934:	91000900 	add	x0, x8, #0x2
    4938:	f94063e4 	ldr	x4, [sp, #192]
    493c:	cb0b0210 	sub	x16, x16, x11
    4940:	8b020c62 	add	x2, x3, x2, lsl #3
    4944:	8b000c20 	add	x0, x1, x0, lsl #3
    4948:	cb0e0097 	sub	x23, x4, x14
    494c:	8b020142 	add	x2, x10, x2
    4950:	a95613e3 	ldp	x3, x4, [sp, #352]
    4954:	8b080063 	add	x3, x3, x8
    4958:	cb080188 	sub	x8, x12, x8
    495c:	8b030c83 	add	x3, x4, x3, lsl #3
    4960:	6d7f8c02 	ldp	d2, d3, [x0, #-8]
    4964:	d1002004 	sub	x4, x0, #0x8
    4968:	fc707800 	ldr	d0, [x0, x16, lsl #3]
    496c:	fc777811 	ldr	d17, [x0, x23, lsl #3]
    4970:	fc707892 	ldr	d18, [x4, x16, lsl #3]
    4974:	1e632800 	fadd	d0, d0, d3
    4978:	fc687810 	ldr	d16, [x0, x8, lsl #3]
    497c:	fc777887 	ldr	d7, [x4, x23, lsl #3]
    4980:	91002000 	add	x0, x0, #0x8
    4984:	fc687883 	ldr	d3, [x4, x8, lsl #3]
    4988:	1e622800 	fadd	d0, d0, d2
    498c:	fd400042 	ldr	d2, [x2]
    4990:	1e722800 	fadd	d0, d0, d18
    4994:	1e712800 	fadd	d0, d0, d17
    4998:	1e702800 	fadd	d0, d0, d16
    499c:	1e672800 	fadd	d0, d0, d7
    49a0:	1e632800 	fadd	d0, d0, d3
    49a4:	1f450800 	fmadd	d0, d0, d5, d2
    49a8:	fc010440 	str	d0, [x2], #16
    49ac:	eb03001f 	cmp	x0, x3
    49b0:	54fffd81 	b.ne	4960 <interp_._omp_fn.1+0x15ec>  // b.any
    49b4:	17ffff66 	b	474c <interp_._omp_fn.1+0x13d8>
    49b8:	8b040042 	add	x2, x2, x4
    49bc:	8b050c25 	add	x5, x1, x5, lsl #3
    49c0:	8b030c23 	add	x3, x1, x3, lsl #3
    49c4:	8b0d0c2d 	add	x13, x1, x13, lsl #3
    49c8:	8b020d42 	add	x2, x10, x2, lsl #3
    49cc:	8b070c27 	add	x7, x1, x7, lsl #3
    49d0:	fc6478a2 	ldr	d2, [x5, x4, lsl #3]
    49d4:	fc647860 	ldr	d0, [x3, x4, lsl #3]
    49d8:	fc6479a7 	ldr	d7, [x13, x4, lsl #3]
    49dc:	fc6478e3 	ldr	d3, [x7, x4, lsl #3]
    49e0:	91000484 	add	x4, x4, #0x1
    49e4:	1e622800 	fadd	d0, d0, d2
    49e8:	fd400042 	ldr	d2, [x2]
    49ec:	1e672800 	fadd	d0, d0, d7
    49f0:	1e632800 	fadd	d0, d0, d3
    49f4:	1f460800 	fmadd	d0, d0, d6, d2
    49f8:	fc010440 	str	d0, [x2], #16
    49fc:	6b04031f 	cmp	w24, w4
    4a00:	54fffe8c 	b.gt	49d0 <interp_._omp_fn.1+0x165c>
    4a04:	17fffea2 	b	448c <interp_._omp_fn.1+0x1118>
    4a08:	b94083e0 	ldr	w0, [sp, #128]
    4a0c:	5280002f 	mov	w15, #0x1                   	// #1
    4a10:	11000400 	add	w0, w0, #0x1
    4a14:	b90083e0 	str	w0, [sp, #128]
    4a18:	17ffff55 	b	476c <interp_._omp_fn.1+0x13f8>
    4a1c:	11000421 	add	w1, w1, #0x1
    4a20:	52800002 	mov	w2, #0x0                   	// #0
    4a24:	17fffb36 	b	36fc <interp_._omp_fn.1+0x388>
    4a28:	1100058c 	add	w12, w12, #0x1
    4a2c:	52800001 	mov	w1, #0x0                   	// #0
    4a30:	17fffa7d 	b	3424 <interp_._omp_fn.1+0xb0>
    4a34:	11000442 	add	w2, w2, #0x1
    4a38:	52800001 	mov	w1, #0x0                   	// #0
    4a3c:	17fffc6e 	b	3bf4 <interp_._omp_fn.1+0x880>
    4a40:	11000421 	add	w1, w1, #0x1
    4a44:	52800002 	mov	w2, #0x0                   	// #0
    4a48:	17fffdac 	b	40f8 <interp_._omp_fn.1+0xd84>
    4a4c:	d503201f 	nop

0000000000004a50 <comm3_._omp_fn.0>:
    4a50:	a9b67bfd 	stp	x29, x30, [sp, #-160]!
    4a54:	910003fd 	mov	x29, sp
    4a58:	a90153f3 	stp	x19, x20, [sp, #16]
    4a5c:	aa0003f4 	mov	x20, x0
    4a60:	a9025bf5 	stp	x21, x22, [sp, #32]
    4a64:	a90363f7 	stp	x23, x24, [sp, #48]
    4a68:	a9046bf9 	stp	x25, x26, [sp, #64]
    4a6c:	97fff2d5 	bl	15c0 <omp_get_num_threads@plt>
    4a70:	2a0003f8 	mov	w24, w0
    4a74:	97fff2fb 	bl	1660 <omp_get_thread_num@plt>
    4a78:	2a0003f9 	mov	w25, w0
    4a7c:	a941d681 	ldp	x1, x21, [x20, #24]
    4a80:	a9428293 	ldp	x19, x0, [x20, #40]
    4a84:	f90037e0 	str	x0, [sp, #104]
    4a88:	b940002c 	ldr	w12, [x1]
    4a8c:	5100098c 	sub	w12, w12, #0x2
    4a90:	1ad80d80 	sdiv	w0, w12, w24
    4a94:	1b18b00c 	msub	w12, w0, w24, w12
    4a98:	6b0c033f 	cmp	w25, w12
    4a9c:	5400204b 	b.lt	4ea4 <comm3_._omp_fn.0+0x454>  // b.tstop
    4aa0:	1b19300c 	madd	w12, w0, w25, w12
    4aa4:	0b0c0000 	add	w0, w0, w12
    4aa8:	6b00019f 	cmp	w12, w0
    4aac:	54000eca 	b.ge	4c84 <comm3_._omp_fn.0+0x234>  // b.tcont
    4ab0:	f9400a82 	ldr	x2, [x20, #16]
    4ab4:	1100098c 	add	w12, w12, #0x2
    4ab8:	a9400683 	ldp	x3, x1, [x20]
    4abc:	93407d84 	sxtw	x4, w12
    4ac0:	b9400048 	ldr	w8, [x2]
    4ac4:	1100081e 	add	w30, w0, #0x2
    4ac8:	f94037e9 	ldr	x9, [sp, #104]
    4acc:	51000517 	sub	w23, w8, #0x1
    4ad0:	93407d16 	sxtw	x22, w8
    4ad4:	9b137c84 	mul	x4, x4, x19
    4ad8:	93407ef7 	sxtw	x23, w23
    4adc:	b9400032 	ldr	w18, [x1]
    4ae0:	8b0902a7 	add	x7, x21, x9
    4ae4:	d37ffaa1 	lsl	x1, x21, #1
    4ae8:	9b157ed6 	mul	x22, x22, x21
    4aec:	8b0400e7 	add	x7, x7, x4
    4af0:	9b157ef7 	mul	x23, x23, x21
    4af4:	53017e4d 	lsr	w13, w18, #1
    4af8:	cb1502c6 	sub	x6, x22, x21
    4afc:	510005ad 	sub	w13, w13, #0x1
    4b00:	cb1502e5 	sub	x5, x23, x21
    4b04:	8b0902ca 	add	x10, x22, x9
    4b08:	d37df0c6 	lsl	x6, x6, #3
    4b0c:	d37df2a9 	lsl	x9, x21, #3
    4b10:	d37df0a5 	lsl	x5, x5, #3
    4b14:	910005ad 	add	x13, x13, #0x1
    4b18:	32000242 	orr	w2, w18, #0x1
    4b1c:	aa0103e0 	mov	x0, x1
    4b20:	9100212e 	add	x14, x9, #0x8
    4b24:	121f7a41 	and	w1, w18, #0xfffffffe
    4b28:	a90717e9 	stp	x9, x5, [sp, #112]
    4b2c:	910020a5 	add	x5, x5, #0x8
    4b30:	8b04014a 	add	x10, x10, x4
    4b34:	a90857e6 	stp	x6, x21, [sp, #128]
    4b38:	910020c6 	add	x6, x6, #0x8
    4b3c:	d37cedad 	lsl	x13, x13, #4
    4b40:	5100065a 	sub	w26, w18, #0x1
    4b44:	93407c42 	sxtw	x2, w2
    4b48:	8b070c6b 	add	x11, x3, x7, lsl #3
    4b4c:	93407e44 	sxtw	x4, w18
    4b50:	aa0503f5 	mov	x21, x5
    4b54:	a90573fb 	stp	x27, x28, [sp, #80]
    4b58:	cb1602fc 	sub	x28, x23, x22
    4b5c:	cb16001b 	sub	x27, x0, x22
    4b60:	cb1702d7 	sub	x23, x22, x23
    4b64:	cb0002d6 	sub	x22, x22, x0
    4b68:	d37df260 	lsl	x0, x19, #3
    4b6c:	291267f8 	stp	w24, w25, [sp, #144]
    4b70:	aa0e03f8 	mov	x24, x14
    4b74:	aa0603f9 	mov	x25, x6
    4b78:	f9004ff4 	str	x20, [sp, #152]
    4b7c:	2a0103f4 	mov	w20, w1
    4b80:	8b0b0121 	add	x1, x9, x11
    4b84:	52800045 	mov	w5, #0x2                   	// #2
    4b88:	6b05011f 	cmp	w8, w5
    4b8c:	5400014d 	b.le	4bb4 <comm3_._omp_fn.0+0x164>
    4b90:	d1002026 	sub	x6, x1, #0x8
    4b94:	fd400820 	ldr	d0, [x1, #16]
    4b98:	110004a5 	add	w5, w5, #0x1
    4b9c:	fc6478c1 	ldr	d1, [x6, x4, lsl #3]
    4ba0:	fd000421 	str	d1, [x1, #8]
    4ba4:	fc247820 	str	d0, [x1, x4, lsl #3]
    4ba8:	8b090021 	add	x1, x1, x9
    4bac:	6b05011f 	cmp	w8, w5
    4bb0:	54ffff01 	b.ne	4b90 <comm3_._omp_fn.0+0x140>  // b.any
    4bb4:	7100025f 	cmp	w18, #0x0
    4bb8:	5400052d 	b.le	4c5c <comm3_._omp_fn.0+0x20c>
    4bbc:	cb070141 	sub	x1, x10, x7
    4bc0:	7100175f 	cmp	w26, #0x5
    4bc4:	fa418824 	ccmp	x1, #0x1, #0x4, hi  // hi = pmore
    4bc8:	8b0a0386 	add	x6, x28, x10
    4bcc:	8b0a0365 	add	x5, x27, x10
    4bd0:	1a9f07e1 	cset	w1, ne  // ne = any
    4bd4:	cb0600ef 	sub	x15, x7, x6
    4bd8:	f10006df 	cmp	x22, #0x1
    4bdc:	cb0700ae 	sub	x14, x5, x7
    4be0:	fa4119e4 	ccmp	x15, #0x1, #0x4, ne  // ne = any
    4be4:	910005ce 	add	x14, x14, #0x1
    4be8:	1a9f07ef 	cset	w15, ne  // ne = any
    4bec:	f10009df 	cmp	x14, #0x2
    4bf0:	0a0f0021 	and	w1, w1, w15
    4bf4:	fa418ae4 	ccmp	x23, #0x1, #0x4, hi  // hi = pmore
    4bf8:	1a9f07ee 	cset	w14, ne  // ne = any
    4bfc:	6a0101df 	tst	w14, w1
    4c00:	54001120 	b.eq	4e24 <comm3_._omp_fn.0+0x3d4>  // b.none
    4c04:	8b0b02b1 	add	x17, x21, x11
    4c08:	91002170 	add	x16, x11, #0x8
    4c0c:	8b0b030f 	add	x15, x24, x11
    4c10:	8b0b032e 	add	x14, x25, x11
    4c14:	d2800001 	mov	x1, #0x0                   	// #0
    4c18:	3ce16a20 	ldr	q0, [x17, x1]
    4c1c:	3ca16a00 	str	q0, [x16, x1]
    4c20:	3ce169e0 	ldr	q0, [x15, x1]
    4c24:	3ca169c0 	str	q0, [x14, x1]
    4c28:	91004021 	add	x1, x1, #0x10
    4c2c:	eb0d003f 	cmp	x1, x13
    4c30:	54ffff41 	b.ne	4c18 <comm3_._omp_fn.0+0x1c8>  // b.any
    4c34:	6b14025f 	cmp	w18, w20
    4c38:	54000120 	b.eq	4c5c <comm3_._omp_fn.0+0x20c>  // b.none
    4c3c:	8b060046 	add	x6, x2, x6
    4c40:	8b050045 	add	x5, x2, x5
    4c44:	8b0200ee 	add	x14, x7, x2
    4c48:	8b020141 	add	x1, x10, x2
    4c4c:	fc667860 	ldr	d0, [x3, x6, lsl #3]
    4c50:	fc2e7860 	str	d0, [x3, x14, lsl #3]
    4c54:	fc657860 	ldr	d0, [x3, x5, lsl #3]
    4c58:	fc217860 	str	d0, [x3, x1, lsl #3]
    4c5c:	1100058c 	add	w12, w12, #0x1
    4c60:	8b1300e7 	add	x7, x7, x19
    4c64:	8b00016b 	add	x11, x11, x0
    4c68:	8b13014a 	add	x10, x10, x19
    4c6c:	6b0c03df 	cmp	w30, w12
    4c70:	54fff881 	b.ne	4b80 <comm3_._omp_fn.0+0x130>  // b.any
    4c74:	a94573fb 	ldp	x27, x28, [sp, #80]
    4c78:	295267f8 	ldp	w24, w25, [sp, #144]
    4c7c:	f94047f5 	ldr	x21, [sp, #136]
    4c80:	f9404ff4 	ldr	x20, [sp, #152]
    4c84:	97fff29f 	bl	1700 <GOMP_barrier@plt>
    4c88:	f9400a80 	ldr	x0, [x20, #16]
    4c8c:	b9400009 	ldr	w9, [x0]
    4c90:	1ad80d20 	sdiv	w0, w9, w24
    4c94:	1b18a409 	msub	w9, w0, w24, w9
    4c98:	6b09033f 	cmp	w25, w9
    4c9c:	54000feb 	b.lt	4e98 <comm3_._omp_fn.0+0x448>  // b.tstop
    4ca0:	1b192409 	madd	w9, w0, w25, w9
    4ca4:	0b090000 	add	w0, w0, w9
    4ca8:	6b00013f 	cmp	w9, w0
    4cac:	54000b0a 	b.ge	4e0c <comm3_._omp_fn.0+0x3bc>  // b.tcont
    4cb0:	a9400a81 	ldp	x1, x2, [x20]
    4cb4:	11000529 	add	w9, w9, #0x1
    4cb8:	f94037e3 	ldr	x3, [sp, #104]
    4cbc:	b940004a 	ldr	w10, [x2]
    4cc0:	8b13046f 	add	x15, x3, x19, lsl #1
    4cc4:	f9400e82 	ldr	x2, [x20, #24]
    4cc8:	7100015f 	cmp	w10, #0x0
    4ccc:	54000a0d 	b.le	4e0c <comm3_._omp_fn.0+0x3bc>
    4cd0:	b940004c 	ldr	w12, [x2]
    4cd4:	93407d27 	sxtw	x7, w9
    4cd8:	53017d48 	lsr	w8, w10, #1
    4cdc:	8b13006e 	add	x14, x3, x19
    4ce0:	5100058c 	sub	w12, w12, #0x1
    4ce4:	51000508 	sub	w8, w8, #0x1
    4ce8:	9b157ce7 	mul	x7, x7, x21
    4cec:	91000508 	add	x8, x8, #0x1
    4cf0:	93407d8c 	sxtw	x12, w12
    4cf4:	d37df272 	lsl	x18, x19, #3
    4cf8:	910004e6 	add	x6, x7, #0x1
    4cfc:	1100040b 	add	w11, w0, #0x1
    4d00:	8b0e00c6 	add	x6, x6, x14
    4d04:	d37ced08 	lsl	x8, x8, #4
    4d08:	9b137d8c 	mul	x12, x12, x19
    4d0c:	d1002257 	sub	x23, x18, #0x8
    4d10:	d37df2b1 	lsl	x17, x21, #3
    4d14:	121f7954 	and	w20, w10, #0xfffffffe
    4d18:	8b0c026d 	add	x13, x19, x12
    4d1c:	8b0c006c 	add	x12, x3, x12
    4d20:	8b0d006d 	add	x13, x3, x13
    4d24:	32000144 	orr	w4, w10, #0x1
    4d28:	51000550 	sub	w16, w10, #0x1
    4d2c:	8b060c26 	add	x6, x1, x6, lsl #3
    4d30:	91000598 	add	x24, x12, #0x1
    4d34:	910005b6 	add	x22, x13, #0x1
    4d38:	a90573fb 	stp	x27, x28, [sp, #80]
    4d3c:	d503201f 	nop
    4d40:	8b0701d9 	add	x25, x14, x7
    4d44:	8b070185 	add	x5, x12, x7
    4d48:	8b0701e2 	add	x2, x15, x7
    4d4c:	cb050320 	sub	x0, x25, x5
    4d50:	8b0d00e3 	add	x3, x7, x13
    4d54:	f100041f 	cmp	x0, #0x1
    4d58:	cb020060 	sub	x0, x3, x2
    4d5c:	cb19007b 	sub	x27, x3, x25
    4d60:	fa411804 	ccmp	x0, #0x1, #0x4, ne  // ne = any
    4d64:	1a9f07e0 	cset	w0, ne  // ne = any
    4d68:	9100045a 	add	x26, x2, #0x1
    4d6c:	f100077f 	cmp	x27, #0x1
    4d70:	cb19035a 	sub	x26, x26, x25
    4d74:	fa411a64 	ccmp	x19, #0x1, #0x4, ne  // ne = any
    4d78:	1a9f07fb 	cset	w27, ne  // ne = any
    4d7c:	f1000b5f 	cmp	x26, #0x2
    4d80:	7a458a00 	ccmp	w16, #0x5, #0x0, hi  // hi = pmore
    4d84:	0a1b0000 	and	w0, w0, w27
    4d88:	1a9f97fa 	cset	w26, hi  // hi = pmore
    4d8c:	6a00035f 	tst	w26, w0
    4d90:	54000680 	b.eq	4e60 <comm3_._omp_fn.0+0x410>  // b.none
    4d94:	8b07031b 	add	x27, x24, x7
    4d98:	8b0702da 	add	x26, x22, x7
    4d9c:	8b1200dc 	add	x28, x6, x18
    4da0:	d2800000 	mov	x0, #0x0                   	// #0
    4da4:	8b1b0c3b 	add	x27, x1, x27, lsl #3
    4da8:	8b1a0c3a 	add	x26, x1, x26, lsl #3
    4dac:	d503201f 	nop
    4db0:	3ce06b60 	ldr	q0, [x27, x0]
    4db4:	3ca068c0 	str	q0, [x6, x0]
    4db8:	3ce06b80 	ldr	q0, [x28, x0]
    4dbc:	3ca06b40 	str	q0, [x26, x0]
    4dc0:	91004000 	add	x0, x0, #0x10
    4dc4:	eb08001f 	cmp	x0, x8
    4dc8:	54ffff41 	b.ne	4db0 <comm3_._omp_fn.0+0x360>  // b.any
    4dcc:	6b14015f 	cmp	w10, w20
    4dd0:	54000120 	b.eq	4df4 <comm3_._omp_fn.0+0x3a4>  // b.none
    4dd4:	8b0400a5 	add	x5, x5, x4
    4dd8:	8b040320 	add	x0, x25, x4
    4ddc:	8b020082 	add	x2, x4, x2
    4de0:	8b040063 	add	x3, x3, x4
    4de4:	fc657820 	ldr	d0, [x1, x5, lsl #3]
    4de8:	fc207820 	str	d0, [x1, x0, lsl #3]
    4dec:	fc627820 	ldr	d0, [x1, x2, lsl #3]
    4df0:	fc237820 	str	d0, [x1, x3, lsl #3]
    4df4:	11000529 	add	w9, w9, #0x1
    4df8:	8b1500e7 	add	x7, x7, x21
    4dfc:	8b1100c6 	add	x6, x6, x17
    4e00:	6b0b013f 	cmp	w9, w11
    4e04:	54fff9e1 	b.ne	4d40 <comm3_._omp_fn.0+0x2f0>  // b.any
    4e08:	a94573fb 	ldp	x27, x28, [sp, #80]
    4e0c:	a94153f3 	ldp	x19, x20, [sp, #16]
    4e10:	a9425bf5 	ldp	x21, x22, [sp, #32]
    4e14:	a94363f7 	ldp	x23, x24, [sp, #48]
    4e18:	a9446bf9 	ldp	x25, x26, [sp, #64]
    4e1c:	a8ca7bfd 	ldp	x29, x30, [sp], #160
    4e20:	d65f03c0 	ret
    4e24:	f9403fe1 	ldr	x1, [sp, #120]
    4e28:	8b01016e 	add	x14, x11, x1
    4e2c:	f9403be1 	ldr	x1, [sp, #112]
    4e30:	8b010166 	add	x6, x11, x1
    4e34:	f94043e1 	ldr	x1, [sp, #128]
    4e38:	8b010165 	add	x5, x11, x1
    4e3c:	d2800021 	mov	x1, #0x1                   	// #1
    4e40:	fc6179c0 	ldr	d0, [x14, x1, lsl #3]
    4e44:	fc217960 	str	d0, [x11, x1, lsl #3]
    4e48:	fc6178c0 	ldr	d0, [x6, x1, lsl #3]
    4e4c:	fc2178a0 	str	d0, [x5, x1, lsl #3]
    4e50:	91000421 	add	x1, x1, #0x1
    4e54:	6b01025f 	cmp	w18, w1
    4e58:	54ffff4a 	b.ge	4e40 <comm3_._omp_fn.0+0x3f0>  // b.tcont
    4e5c:	17ffff80 	b	4c5c <comm3_._omp_fn.0+0x20c>
    4e60:	8b030c22 	add	x2, x1, x3, lsl #3
    4e64:	8b050c25 	add	x5, x1, x5, lsl #3
    4e68:	8b0602f9 	add	x25, x23, x6
    4e6c:	d10020c3 	sub	x3, x6, #0x8
    4e70:	d2800020 	mov	x0, #0x1                   	// #1
    4e74:	d503201f 	nop
    4e78:	fc6078a0 	ldr	d0, [x5, x0, lsl #3]
    4e7c:	fc207860 	str	d0, [x3, x0, lsl #3]
    4e80:	fc607b20 	ldr	d0, [x25, x0, lsl #3]
    4e84:	fc207840 	str	d0, [x2, x0, lsl #3]
    4e88:	91000400 	add	x0, x0, #0x1
    4e8c:	6b00015f 	cmp	w10, w0
    4e90:	54ffff4a 	b.ge	4e78 <comm3_._omp_fn.0+0x428>  // b.tcont
    4e94:	17ffffd8 	b	4df4 <comm3_._omp_fn.0+0x3a4>
    4e98:	11000400 	add	w0, w0, #0x1
    4e9c:	52800009 	mov	w9, #0x0                   	// #0
    4ea0:	17ffff80 	b	4ca0 <comm3_._omp_fn.0+0x250>
    4ea4:	11000400 	add	w0, w0, #0x1
    4ea8:	5280000c 	mov	w12, #0x0                   	// #0
    4eac:	17fffefd 	b	4aa0 <comm3_._omp_fn.0+0x50>

0000000000004eb0 <rprj3_._omp_fn.0>:
    4eb0:	d2823e0c 	mov	x12, #0x11f0                	// #4592
    4eb4:	cb2c63ff 	sub	sp, sp, x12
    4eb8:	a9007bfd 	stp	x29, x30, [sp]
    4ebc:	910003fd 	mov	x29, sp
    4ec0:	a90153f3 	stp	x19, x20, [sp, #16]
    4ec4:	aa0003f3 	mov	x19, x0
    4ec8:	b9405400 	ldr	w0, [x0, #84]
    4ecc:	b9405a61 	ldr	w1, [x19, #88]
    4ed0:	b900f7e1 	str	w1, [sp, #244]
    4ed4:	7100041f 	cmp	w0, #0x1
    4ed8:	5400420d 	b.le	5718 <rprj3_._omp_fn.0+0x868>
    4edc:	51000400 	sub	w0, w0, #0x1
    4ee0:	7100043f 	cmp	w1, #0x1
    4ee4:	540041ad 	b.le	5718 <rprj3_._omp_fn.0+0x868>
    4ee8:	a9025bf5 	stp	x21, x22, [sp, #32]
    4eec:	51000435 	sub	w21, w1, #0x1
    4ef0:	1b157c16 	mul	w22, w0, w21
    4ef4:	97fff1b3 	bl	15c0 <omp_get_num_threads@plt>
    4ef8:	2a0003f4 	mov	w20, w0
    4efc:	97fff1d9 	bl	1660 <omp_get_thread_num@plt>
    4f00:	1ad40ac1 	udiv	w1, w22, w20
    4f04:	1b14d822 	msub	w2, w1, w20, w22
    4f08:	6b02001f 	cmp	w0, w2
    4f0c:	54004a83 	b.cc	585c <rprj3_._omp_fn.0+0x9ac>  // b.lo, b.ul, b.last
    4f10:	1b000820 	madd	w0, w1, w0, w2
    4f14:	0b000022 	add	w2, w1, w0
    4f18:	6b02001f 	cmp	w0, w2
    4f1c:	54004082 	b.cs	572c <rprj3_._omp_fn.0+0x87c>  // b.hs, b.nlast
    4f20:	a9414663 	ldp	x3, x17, [x19, #16]
    4f24:	51000421 	sub	w1, w1, #0x1
    4f28:	b900f3e1 	str	w1, [sp, #240]
    4f2c:	d2e7f601 	mov	x1, #0x3fb0000000000000    	// #4589168020290535424
    4f30:	9e670031 	fmov	d17, x1
    4f34:	b9404a62 	ldr	w2, [x19, #72]
    4f38:	1ad5080e 	udiv	w14, w0, w21
    4f3c:	a9046bf9 	stp	x25, x26, [sp, #64]
    4f40:	912763fa 	add	x26, sp, #0x9d8
    4f44:	b940006f 	ldr	w15, [x3]
    4f48:	93407c48 	sxtw	x8, w2
    4f4c:	aa0803f0 	mov	x16, x8
    4f50:	f9008be8 	str	x8, [sp, #272]
    4f54:	51000de1 	sub	w1, w15, #0x3
    4f58:	1b1581c0 	msub	w0, w14, w21, w0
    4f5c:	2a0103e5 	mov	w5, w1
    4f60:	121f7821 	and	w1, w1, #0xfffffffe
    4f64:	1100082d 	add	w13, w1, #0x2
    4f68:	b90183e5 	str	w5, [sp, #384]
    4f6c:	937f7c27 	sbfiz	x7, x1, #1, #32
    4f70:	53017ca5 	lsr	w5, w5, #1
    4f74:	531f79a6 	lsl	w6, w13, #1
    4f78:	cb0800e7 	sub	x7, x7, x8
    4f7c:	110008ca 	add	w10, w6, #0x2
    4f80:	4b0200c6 	sub	w6, w6, w2
    4f84:	4b02014a 	sub	w10, w10, w2
    4f88:	110004c8 	add	w8, w6, #0x1
    4f8c:	1100054b 	add	w11, w10, #0x1
    4f90:	510004a5 	sub	w5, w5, #0x1
    4f94:	5100054c 	sub	w12, w10, #0x1
    4f98:	510004c9 	sub	w9, w6, #0x1
    4f9c:	d37df0e7 	lsl	x7, x7, #3
    4fa0:	910004a5 	add	x5, x5, #0x1
    4fa4:	f9401272 	ldr	x18, [x19, #32]
    4fa8:	11000c34 	add	w20, w1, #0x3
    4fac:	910040e7 	add	x7, x7, #0x10
    4fb0:	cb100fe1 	neg	x1, x16, lsl #3
    4fb4:	93407d6b 	sxtw	x11, w11
    4fb8:	110009d0 	add	w16, w14, #0x2
    4fbc:	93407d08 	sxtw	x8, w8
    4fc0:	a90573fb 	stp	x27, x28, [sp, #80]
    4fc4:	910703fc 	add	x28, sp, #0x1c0
    4fc8:	510009e4 	sub	w4, w15, #0x2
    4fcc:	510009e2 	sub	w2, w15, #0x2
    4fd0:	11000800 	add	w0, w0, #0x2
    4fd4:	d37be8a5 	lsl	x5, x5, #5
    4fd8:	93407dad 	sxtw	x13, w13
    4fdc:	93407d8c 	sxtw	x12, w12
    4fe0:	93407d29 	sxtw	x9, w9
    4fe4:	93407cde 	sxtw	x30, w6
    4fe8:	937d7cc6 	sbfiz	x6, x6, #3, #32
    4fec:	a90363f7 	stp	x23, x24, [sp, #48]
    4ff0:	d1000483 	sub	x3, x4, #0x1
    4ff4:	b9006fef 	str	w15, [sp, #108]
    4ff8:	9100802f 	add	x15, x1, #0x20
    4ffc:	a908c7f2 	stp	x18, x17, [sp, #136]
    5000:	aa0103ee 	mov	x14, x1
    5004:	d37ff863 	lsl	x3, x3, #1
    5008:	b900dff0 	str	w16, [sp, #220]
    500c:	91000884 	add	x4, x4, #0x2
    5010:	f90073e1 	str	x1, [sp, #224]
    5014:	91004021 	add	x1, x1, #0x10
    5018:	f900abe5 	str	x5, [sp, #336]
    501c:	93407e85 	sxtw	x5, w20
    5020:	a916a3e9 	stp	x9, x8, [sp, #360]
    5024:	8b070348 	add	x8, x26, x7
    5028:	8b070387 	add	x7, x28, x7
    502c:	a9141fe8 	stp	x8, x7, [sp, #320]
    5030:	8b225035 	add	x21, x1, w2, uxtw #4
    5034:	8b010382 	add	x2, x28, x1
    5038:	f900bfed 	str	x13, [sp, #376]
    503c:	8b010341 	add	x1, x26, x1
    5040:	b90187f4 	str	w20, [sp, #388]
    5044:	d37ffa38 	lsl	x24, x17, #1
    5048:	f900c7e6 	str	x6, [sp, #392]
    504c:	aa1503f9 	mov	x25, x21
    5050:	a919afec 	stp	x12, x11, [sp, #408]
    5054:	93407d4b 	sxtw	x11, w10
    5058:	937d7d4a 	sbfiz	x10, x10, #3, #32
    505c:	f900cbeb 	str	x11, [sp, #400]
    5060:	1e6a1014 	fmov	d20, #2.500000000000000000e-01
    5064:	f900dbea 	str	x10, [sp, #432]
    5068:	1e6c1013 	fmov	d19, #5.000000000000000000e-01
    506c:	f900dfef 	str	x15, [sp, #440]
    5070:	1e681012 	fmov	d18, #1.250000000000000000e-01
    5074:	6f02f610 	fmov	v16.2d, #2.500000000000000000e-01
    5078:	f900d7e5 	str	x5, [sp, #424]
    507c:	6f03f407 	fmov	v7.2d, #5.000000000000000000e-01
    5080:	290cffe0 	stp	w0, wzr, [sp, #100]
    5084:	531f7a00 	lsl	w0, w16, #1
    5088:	b900dbe0 	str	w0, [sp, #216]
    508c:	d37ffa40 	lsl	x0, x18, #1
    5090:	f9003be0 	str	x0, [sp, #112]
    5094:	6f02f406 	fmov	v6.2d, #1.250000000000000000e-01
    5098:	b9404e60 	ldr	w0, [x19, #76]
    509c:	b900efe0 	str	w0, [sp, #236]
    50a0:	b9405260 	ldr	w0, [x19, #80]
    50a4:	b900ebe0 	str	w0, [sp, #232]
    50a8:	b0000020 	adrp	x0, a000 <print_results_+0x3f0>
    50ac:	a91187e2 	stp	x2, x1, [sp, #280]
    50b0:	8b0f0381 	add	x1, x28, x15
    50b4:	3dc3bc05 	ldr	q5, [x0, #3824]
    50b8:	f9009be4 	str	x4, [sp, #304]
    50bc:	f9400660 	ldr	x0, [x19, #8]
    50c0:	f9004fe0 	str	x0, [sp, #152]
    50c4:	f9401660 	ldr	x0, [x19, #40]
    50c8:	f90043e0 	str	x0, [sp, #128]
    50cc:	f9401a60 	ldr	x0, [x19, #48]
    50d0:	91001464 	add	x4, x3, #0x5
    50d4:	f90087e0 	str	x0, [sp, #264]
    50d8:	91001863 	add	x3, x3, #0x6
    50dc:	f9401e60 	ldr	x0, [x19, #56]
    50e0:	f90083e0 	str	x0, [sp, #256]
    50e4:	f900afe1 	str	x1, [sp, #344]
    50e8:	8b0f0341 	add	x1, x26, x15
    50ec:	f940027b 	ldr	x27, [x19]
    50f0:	f9009fe3 	str	x3, [sp, #312]
    50f4:	f9402260 	ldr	x0, [x19, #64]
    50f8:	aa0403f3 	mov	x19, x4
    50fc:	f9003fe0 	str	x0, [sp, #120]
    5100:	f900b3e1 	str	x1, [sp, #352]
    5104:	910061c1 	add	x1, x14, #0x18
    5108:	f90097e1 	str	x1, [sp, #296]
    510c:	d503201f 	nop
    5110:	b94067e0 	ldr	w0, [sp, #100]
    5114:	b940ebe1 	ldr	w1, [sp, #232]
    5118:	531f7803 	lsl	w3, w0, #1
    511c:	b940dbe0 	ldr	w0, [sp, #216]
    5120:	4b01000b 	sub	w11, w0, w1
    5124:	b940efe0 	ldr	w0, [sp, #236]
    5128:	4b000063 	sub	w3, w3, w0
    512c:	b9406fe0 	ldr	w0, [sp, #108]
    5130:	7100041f 	cmp	w0, #0x1
    5134:	54002d0d 	b.le	56d4 <rprj3_._omp_fn.0+0x824>
    5138:	a94813ec 	ldp	x12, x4, [sp, #128]
    513c:	51000570 	sub	w16, w11, #0x1
    5140:	51000468 	sub	w8, w3, #0x1
    5144:	93407d6b 	sxtw	x11, w11
    5148:	93407e05 	sxtw	x5, w16
    514c:	93407c63 	sxtw	x3, w3
    5150:	f9403be9 	ldr	x9, [sp, #112]
    5154:	93407d02 	sxtw	x2, w8
    5158:	f9404be6 	ldr	x6, [sp, #144]
    515c:	9b047ca5 	mul	x5, x5, x4
    5160:	9b047d60 	mul	x0, x11, x4
    5164:	8b050129 	add	x9, x9, x5
    5168:	8b090187 	add	x7, x12, x9
    516c:	9b067c42 	mul	x2, x2, x6
    5170:	8b000184 	add	x4, x12, x0
    5174:	cb000129 	sub	x9, x9, x0
    5178:	8b05018c 	add	x12, x12, x5
    517c:	cb0000a5 	sub	x5, x5, x0
    5180:	f94097e0 	ldr	x0, [sp, #296]
    5184:	8b020084 	add	x4, x4, x2
    5188:	9b067c66 	mul	x6, x3, x6
    518c:	8b180042 	add	x2, x2, x24
    5190:	f94073e1 	ldr	x1, [sp, #224]
    5194:	8b0700ca 	add	x10, x6, x7
    5198:	8b040c00 	add	x0, x0, x4, lsl #3
    519c:	8b070047 	add	x7, x2, x7
    51a0:	8b060186 	add	x6, x12, x6
    51a4:	8b0c0042 	add	x2, x2, x12
    51a8:	cb04014a 	sub	x10, x10, x4
    51ac:	cb0400e7 	sub	x7, x7, x4
    51b0:	cb0400c6 	sub	x6, x6, x4
    51b4:	cb040042 	sub	x2, x2, x4
    51b8:	8b000360 	add	x0, x27, x0
    51bc:	d503201f 	nop
    51c0:	fc787803 	ldr	d3, [x0, x24, lsl #3]
    51c4:	8b01038c 	add	x12, x28, x1
    51c8:	fc697802 	ldr	d2, [x0, x9, lsl #3]
    51cc:	8b010344 	add	x4, x26, x1
    51d0:	fc657800 	ldr	d0, [x0, x5, lsl #3]
    51d4:	91004021 	add	x1, x1, #0x10
    51d8:	fd400001 	ldr	d1, [x0]
    51dc:	fc667815 	ldr	d21, [x0, x6, lsl #3]
    51e0:	1e622800 	fadd	d0, d0, d2
    51e4:	fc627804 	ldr	d4, [x0, x2, lsl #3]
    51e8:	1e632821 	fadd	d1, d1, d3
    51ec:	fc677802 	ldr	d2, [x0, x7, lsl #3]
    51f0:	fc6a7803 	ldr	d3, [x0, x10, lsl #3]
    51f4:	91004000 	add	x0, x0, #0x10
    51f8:	1e642800 	fadd	d0, d0, d4
    51fc:	1e752821 	fadd	d1, d1, d21
    5200:	1e622800 	fadd	d0, d0, d2
    5204:	1e632821 	fadd	d1, d1, d3
    5208:	fd000880 	str	d0, [x4, #16]
    520c:	fd000981 	str	d1, [x12, #16]
    5210:	eb01033f 	cmp	x25, x1
    5214:	54fffd61 	b.ne	51c0 <rprj3_._omp_fn.0+0x310>  // b.any
    5218:	b9406fe0 	ldr	w0, [sp, #108]
    521c:	7100081f 	cmp	w0, #0x2
    5220:	540025ad 	b.le	56d4 <rprj3_._omp_fn.0+0x824>
    5224:	a9488be6 	ldp	x6, x2, [sp, #136]
    5228:	93407d08 	sxtw	x8, w8
    522c:	b980dff1 	ldrsw	x17, [sp, #220]
    5230:	93407e10 	sxtw	x16, w16
    5234:	a947bfe7 	ldp	x7, x15, [sp, #120]
    5238:	b98067e0 	ldrsw	x0, [sp, #100]
    523c:	9b027d08 	mul	x8, x8, x2
    5240:	9b027c63 	mul	x3, x3, x2
    5244:	f94083e2 	ldr	x2, [sp, #256]
    5248:	9b067d61 	mul	x1, x11, x6
    524c:	f9408bee 	ldr	x14, [sp, #272]
    5250:	f9007fe1 	str	x1, [sp, #248]
    5254:	9b027e31 	mul	x17, x17, x2
    5258:	8b0101e1 	add	x1, x15, x1
    525c:	f94087e2 	ldr	x2, [sp, #264]
    5260:	9b067e10 	mul	x16, x16, x6
    5264:	f9409bed 	ldr	x13, [sp, #304]
    5268:	8b180114 	add	x20, x8, x24
    526c:	9b027c00 	mul	x0, x0, x2
    5270:	8b010102 	add	x2, x8, x1
    5274:	cb0e004b 	sub	x11, x2, x14
    5278:	f90063e2 	str	x2, [sp, #192]
    527c:	8b110002 	add	x2, x0, x17
    5280:	f90057e0 	str	x0, [sp, #168]
    5284:	f9404fe6 	ldr	x6, [sp, #152]
    5288:	8b070042 	add	x2, x2, x7
    528c:	91000840 	add	x0, x2, #0x2
    5290:	8b0201a2 	add	x2, x13, x2
    5294:	8b010289 	add	x9, x20, x1
    5298:	8b130165 	add	x5, x11, x19
    529c:	8b020cc2 	add	x2, x6, x2, lsl #3
    52a0:	8b000cc0 	add	x0, x6, x0, lsl #3
    52a4:	cb0e012d 	sub	x13, x9, x14
    52a8:	9100116b 	add	x11, x11, #0x4
    52ac:	f90053e9 	str	x9, [sp, #160]
    52b0:	cb0e0064 	sub	x4, x3, x14
    52b4:	f9403be9 	ldr	x9, [sp, #112]
    52b8:	8b050f65 	add	x5, x27, x5, lsl #3
    52bc:	f9409fe6 	ldr	x6, [sp, #312]
    52c0:	8b1301a7 	add	x7, x13, x19
    52c4:	eb0000bf 	cmp	x5, x0
    52c8:	8b0b0f6b 	add	x11, x27, x11, lsl #3
    52cc:	8b040025 	add	x5, x1, x4
    52d0:	910011ad 	add	x13, x13, #0x4
    52d4:	fa428162 	ccmp	x11, x2, #0x2, hi  // hi = pmore
    52d8:	8b070f67 	add	x7, x27, x7, lsl #3
    52dc:	8b0500c6 	add	x6, x6, x5
    52e0:	8b090209 	add	x9, x16, x9
    52e4:	91000ca5 	add	x5, x5, #0x3
    52e8:	8b0901e9 	add	x9, x15, x9
    52ec:	1a9f37f5 	cset	w21, cs  // cs = hs, nlast
    52f0:	8b0d0f6d 	add	x13, x27, x13, lsl #3
    52f4:	eb0000ff 	cmp	x7, x0
    52f8:	cb0e0107 	sub	x7, x8, x14
    52fc:	8b07012c 	add	x12, x9, x7
    5300:	fa4d8040 	ccmp	x2, x13, #0x0, hi  // hi = pmore
    5304:	d37df0a5 	lsl	x5, x5, #3
    5308:	8b060f66 	add	x6, x27, x6, lsl #3
    530c:	8b1001ef 	add	x15, x15, x16
    5310:	8b050377 	add	x23, x27, x5
    5314:	1a9f87f2 	cset	w18, ls  // ls = plast
    5318:	8b13018a 	add	x10, x12, x19
    531c:	eb06001f 	cmp	x0, x6
    5320:	b94183e6 	ldr	w6, [sp, #384]
    5324:	fa573040 	ccmp	x2, x23, #0x0, cc  // cc = lo, ul, last
    5328:	8b0701e7 	add	x7, x15, x7
    532c:	9100118c 	add	x12, x12, #0x4
    5330:	7a4198c0 	ccmp	w6, #0x1, #0x0, ls  // ls = plast
    5334:	8b0a0f6a 	add	x10, x27, x10, lsl #3
    5338:	cb0e0286 	sub	x6, x20, x14
    533c:	8b1300f6 	add	x22, x7, x19
    5340:	8b0c0f6c 	add	x12, x27, x12, lsl #3
    5344:	910010e7 	add	x7, x7, #0x4
    5348:	a90cdfe5 	stp	x5, x23, [sp, #200]
    534c:	1a9f97f7 	cset	w23, hi  // hi = pmore
    5350:	eb00015f 	cmp	x10, x0
    5354:	8b06012a 	add	x10, x9, x6
    5358:	fa428182 	ccmp	x12, x2, #0x2, hi  // hi = pmore
    535c:	8b160f76 	add	x22, x27, x22, lsl #3
    5360:	8b13014e 	add	x14, x10, x19
    5364:	1a9f37e5 	cset	w5, cs  // cs = hs, nlast
    5368:	8b070f67 	add	x7, x27, x7, lsl #3
    536c:	eb16001f 	cmp	x0, x22
    5370:	fa4230e2 	ccmp	x7, x2, #0x2, cc  // cc = lo, ul, last
    5374:	8b0e0f6e 	add	x14, x27, x14, lsl #3
    5378:	0a1202b5 	and	w21, w21, w18
    537c:	8b0601e6 	add	x6, x15, x6
    5380:	1a9f37f2 	cset	w18, cs  // cs = hs, nlast
    5384:	9100114a 	add	x10, x10, #0x4
    5388:	eb0001df 	cmp	x14, x0
    538c:	8b0401ee 	add	x14, x15, x4
    5390:	8b1300d6 	add	x22, x6, x19
    5394:	b900b3e5 	str	w5, [sp, #176]
    5398:	8b1301c5 	add	x5, x14, x19
    539c:	8b0a0f6a 	add	x10, x27, x10, lsl #3
    53a0:	910010c6 	add	x6, x6, #0x4
    53a4:	fa428142 	ccmp	x10, x2, #0x2, hi  // hi = pmore
    53a8:	0a1502f7 	and	w23, w23, w21
    53ac:	8b160f76 	add	x22, x27, x22, lsl #3
    53b0:	8b050f75 	add	x21, x27, x5, lsl #3
    53b4:	8b060f66 	add	x6, x27, x6, lsl #3
    53b8:	b940b3e5 	ldr	w5, [sp, #176]
    53bc:	8b040124 	add	x4, x9, x4
    53c0:	f9005ff5 	str	x21, [sp, #184]
    53c4:	1a9f37f5 	cset	w21, cs  // cs = hs, nlast
    53c8:	eb0002df 	cmp	x22, x0
    53cc:	0a1200b2 	and	w18, w5, w18
    53d0:	fa4280c2 	ccmp	x6, x2, #0x2, hi  // hi = pmore
    53d4:	910011ce 	add	x14, x14, #0x4
    53d8:	1a9f37e5 	cset	w5, cs  // cs = hs, nlast
    53dc:	b900b3e5 	str	w5, [sp, #176]
    53e0:	f9405fe5 	ldr	x5, [sp, #184]
    53e4:	8b130096 	add	x22, x4, x19
    53e8:	8b0e0f6e 	add	x14, x27, x14, lsl #3
    53ec:	91001084 	add	x4, x4, #0x4
    53f0:	eb05001f 	cmp	x0, x5
    53f4:	b940b3e5 	ldr	w5, [sp, #176]
    53f8:	fa4e3040 	ccmp	x2, x14, #0x0, cc  // cc = lo, ul, last
    53fc:	8b160f76 	add	x22, x27, x22, lsl #3
    5400:	0a1202f2 	and	w18, w23, w18
    5404:	0a0502b5 	and	w21, w21, w5
    5408:	1a9f87f7 	cset	w23, ls  // ls = plast
    540c:	8b040f64 	add	x4, x27, x4, lsl #3
    5410:	eb16001f 	cmp	x0, x22
    5414:	0a150252 	and	w18, w18, w21
    5418:	f9403ff6 	ldr	x22, [sp, #120]
    541c:	fa443040 	ccmp	x2, x4, #0x0, cc  // cc = lo, ul, last
    5420:	f94057f5 	ldr	x21, [sp, #168]
    5424:	1a9f87e2 	cset	w2, ls  // ls = plast
    5428:	8b1102d1 	add	x17, x22, x17
    542c:	0a0202e2 	and	w2, w23, w2
    5430:	8b150231 	add	x17, x17, x21
    5434:	8b1401f7 	add	x23, x15, x20
    5438:	8b140135 	add	x21, x9, x20
    543c:	8b090116 	add	x22, x8, x9
    5440:	8b0801f4 	add	x20, x15, x8
    5444:	8b030021 	add	x1, x1, x3
    5448:	8b030129 	add	x9, x9, x3
    544c:	8b0301ef 	add	x15, x15, x3
    5450:	6a02025f 	tst	w18, w2
    5454:	54001780 	b.eq	5744 <rprj3_._omp_fn.0+0x894>  // b.none
    5458:	a94ccbe2 	ldp	x2, x18, [sp, #200]
    545c:	a90aa7ef 	stp	x15, x9, [sp, #168]
    5460:	f9005fe1 	str	x1, [sp, #184]
    5464:	a90ccff1 	stp	x17, x19, [sp, #200]
    5468:	a951c7e9 	ldp	x9, x17, [sp, #280]
    546c:	91004045 	add	x5, x2, #0x10
    5470:	a9553fe1 	ldp	x1, x15, [sp, #336]
    5474:	8b050365 	add	x5, x27, x5
    5478:	f940b3f3 	ldr	x19, [sp, #352]
    547c:	d2800002 	mov	x2, #0x0                   	// #0
    5480:	8b020170 	add	x16, x11, x2
    5484:	8b0201a3 	add	x3, x13, x2
    5488:	8b0201c8 	add	x8, x14, x2
    548c:	4c408e16 	ld2	{v22.2d, v23.2d}, [x16]
    5490:	8b0200b0 	add	x16, x5, x2
    5494:	4c408c60 	ld2	{v0.2d, v1.2d}, [x3]
    5498:	8b020083 	add	x3, x4, x2
    549c:	4c408d02 	ld2	{v2.2d, v3.2d}, [x8]
    54a0:	8b020248 	add	x8, x18, x2
    54a4:	4e76d404 	fadd	v4.2d, v0.2d, v22.2d
    54a8:	4c408c7a 	ld2	{v26.2d, v27.2d}, [x3]
    54ac:	8b0200e3 	add	x3, x7, x2
    54b0:	4c408d18 	ld2	{v24.2d, v25.2d}, [x8]
    54b4:	8b020188 	add	x8, x12, x2
    54b8:	4c408c76 	ld2	{v22.2d, v23.2d}, [x3]
    54bc:	8b0200c3 	add	x3, x6, x2
    54c0:	4c408e00 	ld2	{v0.2d, v1.2d}, [x16]
    54c4:	8b020150 	add	x16, x10, x2
    54c8:	4e62d484 	fadd	v4.2d, v4.2d, v2.2d
    54cc:	4c408d02 	ld2	{v2.2d, v3.2d}, [x8]
    54d0:	8b020128 	add	x8, x9, x2
    54d4:	4e78d400 	fadd	v0.2d, v0.2d, v24.2d
    54d8:	4e7ad484 	fadd	v4.2d, v4.2d, v26.2d
    54dc:	4e76d442 	fadd	v2.2d, v2.2d, v22.2d
    54e0:	4c408c76 	ld2	{v22.2d, v23.2d}, [x3]
    54e4:	8b0201e3 	add	x3, x15, x2
    54e8:	4c408d1a 	ld2	{v26.2d, v27.2d}, [x8]
    54ec:	8b020228 	add	x8, x17, x2
    54f0:	4e76d442 	fadd	v2.2d, v2.2d, v22.2d
    54f4:	4c408e1c 	ld2	{v28.2d, v29.2d}, [x16]
    54f8:	4c408c76 	ld2	{v22.2d, v23.2d}, [x3]
    54fc:	8b020263 	add	x3, x19, x2
    5500:	4e64d400 	fadd	v0.2d, v0.2d, v4.2d
    5504:	91008042 	add	x2, x2, #0x20
    5508:	4e7cd442 	fadd	v2.2d, v2.2d, v28.2d
    550c:	4e7ad6d6 	fadd	v22.2d, v22.2d, v26.2d
    5510:	4c408d1a 	ld2	{v26.2d, v27.2d}, [x8]
    5514:	6e70dc00 	fmul	v0.2d, v0.2d, v16.2d
    5518:	4e62d6d6 	fadd	v22.2d, v22.2d, v2.2d
    551c:	4c408c62 	ld2	{v2.2d, v3.2d}, [x3]
    5520:	4e79cce0 	fmla	v0.2d, v7.2d, v25.2d
    5524:	4e7ad442 	fadd	v2.2d, v2.2d, v26.2d
    5528:	4e66cec0 	fmla	v0.2d, v22.2d, v6.2d
    552c:	4e65cc40 	fmla	v0.2d, v2.2d, v5.2d
    5530:	3c810400 	str	q0, [x0], #16
    5534:	eb02003f 	cmp	x1, x2
    5538:	54fffa41 	b.ne	5480 <rprj3_._omp_fn.0+0x5d0>  // b.any
    553c:	a9499be7 	ldp	x7, x6, [sp, #152]
    5540:	a94b97e1 	ldp	x1, x5, [sp, #184]
    5544:	a94aa7ef 	ldp	x15, x9, [sp, #168]
    5548:	8b1e00c2 	add	x2, x6, x30
    554c:	f940a7e3 	ldr	x3, [sp, #328]
    5550:	8b1e00a0 	add	x0, x5, x30
    5554:	f940c7e4 	ldr	x4, [sp, #392]
    5558:	fc627b63 	ldr	d3, [x27, x2, lsl #3]
    555c:	8b1e02c2 	add	x2, x22, x30
    5560:	fd400061 	ldr	d1, [x3]
    5564:	8b1e0283 	add	x3, x20, x30
    5568:	fc646b82 	ldr	d2, [x28, x4]
    556c:	fc627b76 	ldr	d22, [x27, x2, lsl #3]
    5570:	f940b7e2 	ldr	x2, [sp, #360]
    5574:	1e612855 	fadd	d21, d2, d1
    5578:	fc607b60 	ldr	d0, [x27, x0, lsl #3]
    557c:	8b1e01e0 	add	x0, x15, x30
    5580:	fc637b61 	ldr	d1, [x27, x3, lsl #3]
    5584:	8b020023 	add	x3, x1, x2
    5588:	f940bbe2 	ldr	x2, [sp, #368]
    558c:	1e632800 	fadd	d0, d0, d3
    5590:	fc607b77 	ldr	d23, [x27, x0, lsl #3]
    5594:	8b1e0120 	add	x0, x9, x30
    5598:	8b020022 	add	x2, x1, x2
    559c:	1e762821 	fadd	d1, d1, d22
    55a0:	fc637b76 	ldr	d22, [x27, x3, lsl #3]
    55a4:	fc607b64 	ldr	d4, [x27, x0, lsl #3]
    55a8:	8b1e02e0 	add	x0, x23, x30
    55ac:	1e772800 	fadd	d0, d0, d23
    55b0:	fc627b77 	ldr	d23, [x27, x2, lsl #3]
    55b4:	8b1e0022 	add	x2, x1, x30
    55b8:	fc646b43 	ldr	d3, [x26, x4]
    55bc:	fc607b78 	ldr	d24, [x27, x0, lsl #3]
    55c0:	8b1e02a0 	add	x0, x21, x30
    55c4:	1e772ad6 	fadd	d22, d22, d23
    55c8:	1e642800 	fadd	d0, d0, d4
    55cc:	fc627b77 	ldr	d23, [x27, x2, lsl #3]
    55d0:	1e782821 	fadd	d1, d1, d24
    55d4:	fc607b78 	ldr	d24, [x27, x0, lsl #3]
    55d8:	f940a3e3 	ldr	x3, [sp, #320]
    55dc:	1e762800 	fadd	d0, d0, d22
    55e0:	b94187e2 	ldr	w2, [sp, #388]
    55e4:	1e782821 	fadd	d1, d1, d24
    55e8:	fd400064 	ldr	d4, [x3]
    55ec:	a94ccff1 	ldp	x17, x19, [sp, #200]
    55f0:	1e740800 	fmul	d0, d0, d20
    55f4:	1f5302e0 	fmadd	d0, d23, d19, d0
    55f8:	1e612aa1 	fadd	d1, d21, d1
    55fc:	1e642864 	fadd	d4, d3, d4
    5600:	f940bfe0 	ldr	x0, [sp, #376]
    5604:	1f520020 	fmadd	d0, d1, d18, d0
    5608:	8b000220 	add	x0, x17, x0
    560c:	1f510080 	fmadd	d0, d4, d17, d0
    5610:	fc2078e0 	str	d0, [x7, x0, lsl #3]
    5614:	b9406fe0 	ldr	w0, [sp, #108]
    5618:	6b02001f 	cmp	w0, w2
    561c:	540005cd 	b.le	56d4 <rprj3_._omp_fn.0+0x824>
    5620:	f940cbe4 	ldr	x4, [sp, #400]
    5624:	8b0400a0 	add	x0, x5, x4
    5628:	8b0400c2 	add	x2, x6, x4
    562c:	8b0401ef 	add	x15, x15, x4
    5630:	8b040294 	add	x20, x20, x4
    5634:	8b0402c3 	add	x3, x22, x4
    5638:	8b040129 	add	x9, x9, x4
    563c:	fc627b64 	ldr	d4, [x27, x2, lsl #3]
    5640:	8b0402f7 	add	x23, x23, x4
    5644:	fc607b60 	ldr	d0, [x27, x0, lsl #3]
    5648:	aa0403e5 	mov	x5, x4
    564c:	a9598be0 	ldp	x0, x2, [sp, #408]
    5650:	8b0402a4 	add	x4, x21, x4
    5654:	1e642800 	fadd	d0, d0, d4
    5658:	fc6f7b75 	ldr	d21, [x27, x15, lsl #3]
    565c:	fc637b77 	ldr	d23, [x27, x3, lsl #3]
    5660:	fc747b61 	ldr	d1, [x27, x20, lsl #3]
    5664:	fc697b76 	ldr	d22, [x27, x9, lsl #3]
    5668:	8b000020 	add	x0, x1, x0
    566c:	8b020022 	add	x2, x1, x2
    5670:	1e752800 	fadd	d0, d0, d21
    5674:	1e772821 	fadd	d1, d1, d23
    5678:	fc777b75 	ldr	d21, [x27, x23, lsl #3]
    567c:	8b050021 	add	x1, x1, x5
    5680:	fc627b78 	ldr	d24, [x27, x2, lsl #3]
    5684:	fc607b64 	ldr	d4, [x27, x0, lsl #3]
    5688:	a95a8be0 	ldp	x0, x2, [sp, #424]
    568c:	1e762800 	fadd	d0, d0, d22
    5690:	1e782884 	fadd	d4, d4, d24
    5694:	1e752821 	fadd	d1, d1, d21
    5698:	fc647b77 	ldr	d23, [x27, x4, lsl #3]
    569c:	fc617b75 	ldr	d21, [x27, x1, lsl #3]
    56a0:	fc626b98 	ldr	d24, [x28, x2]
    56a4:	1e642800 	fadd	d0, d0, d4
    56a8:	1e772821 	fadd	d1, d1, d23
    56ac:	fc626b56 	ldr	d22, [x26, x2]
    56b0:	8b000220 	add	x0, x17, x0
    56b4:	1e782842 	fadd	d2, d2, d24
    56b8:	1e740800 	fmul	d0, d0, d20
    56bc:	1e762863 	fadd	d3, d3, d22
    56c0:	1f5302a0 	fmadd	d0, d21, d19, d0
    56c4:	1e612842 	fadd	d2, d2, d1
    56c8:	1f520040 	fmadd	d0, d2, d18, d0
    56cc:	1f510060 	fmadd	d0, d3, d17, d0
    56d0:	fc2078e0 	str	d0, [x7, x0, lsl #3]
    56d4:	b9406be0 	ldr	w0, [sp, #104]
    56d8:	b940f3e1 	ldr	w1, [sp, #240]
    56dc:	6b01001f 	cmp	w0, w1
    56e0:	54000140 	b.eq	5708 <rprj3_._omp_fn.0+0x858>  // b.none
    56e4:	b94067e1 	ldr	w1, [sp, #100]
    56e8:	b940f7e2 	ldr	w2, [sp, #244]
    56ec:	11000420 	add	w0, w1, #0x1
    56f0:	6b02003f 	cmp	w1, w2
    56f4:	54000a4a 	b.ge	583c <rprj3_._omp_fn.0+0x98c>  // b.tcont
    56f8:	b9406be1 	ldr	w1, [sp, #104]
    56fc:	11000421 	add	w1, w1, #0x1
    5700:	290c87e0 	stp	w0, w1, [sp, #100]
    5704:	17fffe83 	b	5110 <rprj3_._omp_fn.0+0x260>
    5708:	a9425bf5 	ldp	x21, x22, [sp, #32]
    570c:	a94363f7 	ldp	x23, x24, [sp, #48]
    5710:	a9446bf9 	ldp	x25, x26, [sp, #64]
    5714:	a94573fb 	ldp	x27, x28, [sp, #80]
    5718:	d2823e0c 	mov	x12, #0x11f0                	// #4592
    571c:	a9407bfd 	ldp	x29, x30, [sp]
    5720:	a94153f3 	ldp	x19, x20, [sp, #16]
    5724:	8b2c63ff 	add	sp, sp, x12
    5728:	d65f03c0 	ret
    572c:	d2823e0c 	mov	x12, #0x11f0                	// #4592
    5730:	a9407bfd 	ldp	x29, x30, [sp]
    5734:	a94153f3 	ldp	x19, x20, [sp, #16]
    5738:	a9425bf5 	ldp	x21, x22, [sp, #32]
    573c:	8b2c63ff 	add	sp, sp, x12
    5740:	d65f03c0 	ret
    5744:	cb080068 	sub	x8, x3, x8
    5748:	b9406fea 	ldr	w10, [sp, #108]
    574c:	f9407fe5 	ldr	x5, [sp, #248]
    5750:	cb1402a4 	sub	x4, x21, x20
    5754:	a9518fe7 	ldp	x7, x3, [sp, #280]
    5758:	cb1000b0 	sub	x16, x5, x16
    575c:	f940dfe0 	ldr	x0, [sp, #440]
    5760:	cb140021 	sub	x1, x1, x20
    5764:	f9404fe2 	ldr	x2, [sp, #152]
    5768:	f94053e5 	ldr	x5, [sp, #160]
    576c:	8b140c00 	add	x0, x0, x20, lsl #3
    5770:	f9403beb 	ldr	x11, [sp, #112]
    5774:	cb1400a5 	sub	x5, x5, x20
    5778:	f94073e6 	ldr	x6, [sp, #224]
    577c:	8b110c42 	add	x2, x2, x17, lsl #3
    5780:	8b000360 	add	x0, x27, x0
    5784:	cb140134 	sub	x20, x9, x20
    5788:	fd4000f5 	ldr	d21, [x7]
    578c:	fd400076 	ldr	d22, [x3]
    5790:	d2800043 	mov	x3, #0x2                   	// #2
    5794:	d503201f 	nop
    5798:	fc657804 	ldr	d4, [x0, x5, lsl #3]
    579c:	d1002009 	sub	x9, x0, #0x8
    57a0:	fc707800 	ldr	d0, [x0, x16, lsl #3]
    57a4:	91002007 	add	x7, x0, #0x8
    57a8:	fc687817 	ldr	d23, [x0, x8, lsl #3]
    57ac:	1e6042a2 	fmov	d2, d21
    57b0:	fd400001 	ldr	d1, [x0]
    57b4:	1e6042c3 	fmov	d3, d22
    57b8:	1e642800 	fadd	d0, d0, d4
    57bc:	fc6b7815 	ldr	d21, [x0, x11, lsl #3]
    57c0:	fc747816 	ldr	d22, [x0, x20, lsl #3]
    57c4:	fc617924 	ldr	d4, [x9, x1, lsl #3]
    57c8:	8b060389 	add	x9, x28, x6
    57cc:	1e752821 	fadd	d1, d1, d21
    57d0:	fc6178f5 	ldr	d21, [x7, x1, lsl #3]
    57d4:	1e772800 	fadd	d0, d0, d23
    57d8:	fc787817 	ldr	d23, [x0, x24, lsl #3]
    57dc:	fc647818 	ldr	d24, [x0, x4, lsl #3]
    57e0:	8b060347 	add	x7, x26, x6
    57e4:	1e752884 	fadd	d4, d4, d21
    57e8:	fd401135 	ldr	d21, [x9, #32]
    57ec:	1e772821 	fadd	d1, d1, d23
    57f0:	fc617817 	ldr	d23, [x0, x1, lsl #3]
    57f4:	1e762800 	fadd	d0, d0, d22
    57f8:	fd4010f6 	ldr	d22, [x7, #32]
    57fc:	1e752842 	fadd	d2, d2, d21
    5800:	91004000 	add	x0, x0, #0x10
    5804:	910040c6 	add	x6, x6, #0x10
    5808:	1e782821 	fadd	d1, d1, d24
    580c:	1e632ac3 	fadd	d3, d22, d3
    5810:	1e642800 	fadd	d0, d0, d4
    5814:	1e612841 	fadd	d1, d2, d1
    5818:	1e740800 	fmul	d0, d0, d20
    581c:	1f5302e0 	fmadd	d0, d23, d19, d0
    5820:	1f520020 	fmadd	d0, d1, d18, d0
    5824:	1f510060 	fmadd	d0, d3, d17, d0
    5828:	fc237840 	str	d0, [x2, x3, lsl #3]
    582c:	91000463 	add	x3, x3, #0x1
    5830:	6b03015f 	cmp	w10, w3
    5834:	54fffb2c 	b.gt	5798 <rprj3_._omp_fn.0+0x8e8>
    5838:	17ffffa7 	b	56d4 <rprj3_._omp_fn.0+0x824>
    583c:	b940dfe0 	ldr	w0, [sp, #220]
    5840:	11000400 	add	w0, w0, #0x1
    5844:	2a0003e1 	mov	w1, w0
    5848:	52800040 	mov	w0, #0x2                   	// #2
    584c:	b900dfe1 	str	w1, [sp, #220]
    5850:	531f7821 	lsl	w1, w1, #1
    5854:	b900dbe1 	str	w1, [sp, #216]
    5858:	17ffffa8 	b	56f8 <rprj3_._omp_fn.0+0x848>
    585c:	11000421 	add	w1, w1, #0x1
    5860:	52800002 	mov	w2, #0x0                   	// #0
    5864:	17fffdab 	b	4f10 <rprj3_._omp_fn.0+0x60>
    5868:	d503201f 	nop
    586c:	d503201f 	nop

0000000000005870 <norm2u3_>:
    5870:	a9b37bfd 	stp	x29, x30, [sp, #-208]!
    5874:	910003fd 	mov	x29, sp
    5878:	b9400048 	ldr	w8, [x2]
    587c:	a90153f3 	stp	x19, x20, [sp, #16]
    5880:	b9800034 	ldrsw	x20, [x1]
    5884:	a9025bf5 	stp	x21, x22, [sp, #32]
    5888:	f00000b5 	adrp	x21, 1c000 <__FRAME_END__+0xfbe8>
    588c:	f100029f 	cmp	x20, #0x0
    5890:	a90363f7 	stp	x23, x24, [sp, #48]
    5894:	aa0103f7 	mov	x23, x1
    5898:	9a9fa294 	csel	x20, x20, xzr, ge  // ge = tcont
    589c:	f9478aa1 	ldr	x1, [x21, #3856]
    58a0:	93407d13 	sxtw	x19, w8
    58a4:	a90573fb 	stp	x27, x28, [sp, #80]
    58a8:	aa0003fb 	mov	x27, x0
    58ac:	aa0503f6 	mov	x22, x5
    58b0:	b9400020 	ldr	w0, [x1]
    58b4:	9b147e73 	mul	x19, x19, x20
    58b8:	a9046bf9 	stp	x25, x26, [sp, #64]
    58bc:	aa3403fa 	mvn	x26, x20
    58c0:	f100027f 	cmp	x19, #0x0
    58c4:	9a9fa273 	csel	x19, x19, xzr, ge  // ge = tcont
    58c8:	fd0033e8 	str	d8, [sp, #96]
    58cc:	aa0403f9 	mov	x25, x4
    58d0:	aa0703fc 	mov	x28, x7
    58d4:	cb13035a 	sub	x26, x26, x19
    58d8:	f9406be1 	ldr	x1, [sp, #208]
    58dc:	350004e0 	cbnz	w0, 5978 <norm2u3_+0x108>
    58e0:	b94000c4 	ldr	w4, [x6]
    58e4:	51000508 	sub	w8, w8, #0x1
    58e8:	b9400382 	ldr	w2, [x28]
    58ec:	90ffffe0 	adrp	x0, 1000 <__abi_tag+0xd50>
    58f0:	b9400021 	ldr	w1, [x1]
    58f4:	91288000 	add	x0, x0, #0xa20
    58f8:	1e620088 	scvtf	d8, w4
    58fc:	b9400064 	ldr	w4, [x3]
    5900:	1e620041 	scvtf	d1, w2
    5904:	f90002df 	str	xzr, [x22]
    5908:	1e620020 	scvtf	d0, w1
    590c:	51000484 	sub	w4, w4, #0x1
    5910:	910243e1 	add	x1, sp, #0x90
    5914:	52800003 	mov	w3, #0x0                   	// #0
    5918:	52800002 	mov	w2, #0x0                   	// #0
    591c:	a9095ffb 	stp	x27, x23, [sp, #144]
    5920:	1e610908 	fmul	d8, d8, d1
    5924:	a90a4ff4 	stp	x20, x19, [sp, #160]
    5928:	a90b5bfa 	stp	x26, x22, [sp, #176]
    592c:	1e600908 	fmul	d8, d8, d0
    5930:	f90063ff 	str	xzr, [sp, #192]
    5934:	291923e4 	stp	w4, w8, [sp, #200]
    5938:	97ffef96 	bl	1790 <GOMP_parallel@plt>
    593c:	fd4063e0 	ldr	d0, [sp, #192]
    5940:	f9478ab5 	ldr	x21, [x21, #3856]
    5944:	1e681800 	fdiv	d0, d0, d8
    5948:	b94002a0 	ldr	w0, [x21]
    594c:	1e61c000 	fsqrt	d0, d0
    5950:	fd000320 	str	d0, [x25]
    5954:	35000280 	cbnz	w0, 59a4 <norm2u3_+0x134>
    5958:	a94153f3 	ldp	x19, x20, [sp, #16]
    595c:	a9425bf5 	ldp	x21, x22, [sp, #32]
    5960:	a94363f7 	ldp	x23, x24, [sp, #48]
    5964:	a9446bf9 	ldp	x25, x26, [sp, #64]
    5968:	a94573fb 	ldp	x27, x28, [sp, #80]
    596c:	fd4033e8 	ldr	d8, [sp, #96]
    5970:	a8cd7bfd 	ldp	x29, x30, [sp], #208
    5974:	d65f03c0 	ret
    5978:	aa0203f8 	mov	x24, x2
    597c:	d0000020 	adrp	x0, b000 <_IO_stdin_used+0x620>
    5980:	91006000 	add	x0, x0, #0x18
    5984:	a9079be3 	stp	x3, x6, [sp, #120]
    5988:	91002000 	add	x0, x0, #0x8
    598c:	f90047e1 	str	x1, [sp, #136]
    5990:	940012cc 	bl	a4c0 <timer_start_>
    5994:	b9400308 	ldr	w8, [x24]
    5998:	a9479be3 	ldp	x3, x6, [sp, #120]
    599c:	f94047e1 	ldr	x1, [sp, #136]
    59a0:	17ffffd0 	b	58e0 <norm2u3_+0x70>
    59a4:	a94153f3 	ldp	x19, x20, [sp, #16]
    59a8:	d0000020 	adrp	x0, b000 <_IO_stdin_used+0x620>
    59ac:	a9425bf5 	ldp	x21, x22, [sp, #32]
    59b0:	91006000 	add	x0, x0, #0x18
    59b4:	a94363f7 	ldp	x23, x24, [sp, #48]
    59b8:	91002000 	add	x0, x0, #0x8
    59bc:	a9446bf9 	ldp	x25, x26, [sp, #64]
    59c0:	a94573fb 	ldp	x27, x28, [sp, #80]
    59c4:	fd4033e8 	ldr	d8, [sp, #96]
    59c8:	a8cd7bfd 	ldp	x29, x30, [sp], #208
    59cc:	140012cd 	b	a500 <timer_stop_>

00000000000059d0 <zran3_>:
    59d0:	d10943ff 	sub	sp, sp, #0x250
    59d4:	1e6e1001 	fmov	d1, #1.000000000000000000e+00
    59d8:	a9007bfd 	stp	x29, x30, [sp]
    59dc:	910003fd 	mov	x29, sp
    59e0:	a90153f3 	stp	x19, x20, [sp, #16]
    59e4:	b9800034 	ldrsw	x20, [x1]
    59e8:	b9800053 	ldrsw	x19, [x2]
    59ec:	f100029f 	cmp	x20, #0x0
    59f0:	a90363f7 	stp	x23, x24, [sp, #48]
    59f4:	9a9fa294 	csel	x20, x20, xzr, ge  // ge = tcont
    59f8:	aa0403f7 	mov	x23, x4
    59fc:	b0000024 	adrp	x4, a000 <print_results_+0x3f0>
    5a00:	a9046bf9 	stp	x25, x26, [sp, #64]
    5a04:	aa0503f8 	mov	x24, x5
    5a08:	9b147e73 	mul	x19, x19, x20
    5a0c:	fd47c880 	ldr	d0, [x4, #3984]
    5a10:	b94002fa 	ldr	w26, [x23]
    5a14:	f100027f 	cmp	x19, #0x0
    5a18:	a9025bf5 	stp	x21, x22, [sp, #32]
    5a1c:	9a9fa273 	csel	x19, x19, xzr, ge  // ge = tcont
    5a20:	aa3403f6 	mvn	x22, x20
    5a24:	a90573fb 	stp	x27, x28, [sp, #80]
    5a28:	aa0003f5 	mov	x21, x0
    5a2c:	cb1302d6 	sub	x22, x22, x19
    5a30:	a9070be1 	stp	x1, x2, [sp, #112]
    5a34:	f90043e3 	str	x3, [sp, #128]
    5a38:	fd0063e0 	str	d0, [sp, #192]
    5a3c:	fd008be1 	str	d1, [sp, #272]
    5a40:	340032fa 	cbz	w26, 609c <zran3_+0x6cc>
    5a44:	910303f9 	add	x25, sp, #0xc0
    5a48:	910443fc 	add	x28, sp, #0x110
    5a4c:	d503201f 	nop
    5a50:	7100035f 	cmp	w26, #0x0
    5a54:	12000342 	and	w2, w26, #0x1
    5a58:	5a82a442 	cneg	w2, w2, lt  // lt = tstop
    5a5c:	aa1903e1 	mov	x1, x25
    5a60:	aa1903e0 	mov	x0, x25
    5a64:	7100045f 	cmp	w2, #0x1
    5a68:	54002d40 	b.eq	6010 <zran3_+0x640>  // b.none
    5a6c:	0b5a7f5a 	add	w26, w26, w26, lsr #31
    5a70:	94001268 	bl	a410 <randlc_>
    5a74:	13017f5a 	asr	w26, w26, #1
    5a78:	35fffeda 	cbnz	w26, 5a50 <zran3_+0x80>
    5a7c:	b94002fa 	ldr	w26, [x23]
    5a80:	b0000021 	adrp	x1, a000 <print_results_+0x3f0>
    5a84:	b9400300 	ldr	w0, [x24]
    5a88:	1e6e1000 	fmov	d0, #1.000000000000000000e+00
    5a8c:	fd47c822 	ldr	d2, [x1, #3984]
    5a90:	fd408be1 	ldr	d1, [sp, #272]
    5a94:	fd008be0 	str	d0, [sp, #272]
    5a98:	1b007f5a 	mul	w26, w26, w0
    5a9c:	fd0063e2 	str	d2, [sp, #192]
    5aa0:	fd0053e1 	str	d1, [sp, #160]
    5aa4:	340001ba 	cbz	w26, 5ad8 <zran3_+0x108>
    5aa8:	7100035f 	cmp	w26, #0x0
    5aac:	12000342 	and	w2, w26, #0x1
    5ab0:	5a82a442 	cneg	w2, w2, lt  // lt = tstop
    5ab4:	aa1903e1 	mov	x1, x25
    5ab8:	aa1903e0 	mov	x0, x25
    5abc:	7100045f 	cmp	w2, #0x1
    5ac0:	54002ba0 	b.eq	6034 <zran3_+0x664>  // b.none
    5ac4:	0b5a7f5a 	add	w26, w26, w26, lsr #31
    5ac8:	94001252 	bl	a410 <randlc_>
    5acc:	13017f5a 	asr	w26, w26, #1
    5ad0:	35fffeda 	cbnz	w26, 5aa8 <zran3_+0xd8>
    5ad4:	fd408be0 	ldr	d0, [sp, #272]
    5ad8:	a94703e4 	ldp	x4, x0, [sp, #112]
    5adc:	52800003 	mov	w3, #0x0                   	// #0
    5ae0:	52800002 	mov	w2, #0x0                   	// #0
    5ae4:	fd0057e0 	str	d0, [sp, #168]
    5ae8:	a91113f5 	stp	x21, x4, [sp, #272]
    5aec:	f00000bb 	adrp	x27, 1c000 <__FRAME_END__+0xfbe8>
    5af0:	f00000ba 	adrp	x26, 1c000 <__FRAME_END__+0xfbe8>
    5af4:	b9400007 	ldr	w7, [x0]
    5af8:	b9800085 	ldrsw	x5, [x4]
    5afc:	f94043e0 	ldr	x0, [sp, #128]
    5b00:	f10000bf 	cmp	x5, #0x0
    5b04:	9a9fa0a5 	csel	x5, x5, xzr, ge  // ge = tcont
    5b08:	93407ce1 	sxtw	x1, w7
    5b0c:	aa2503e6 	mvn	x6, x5
    5b10:	b9013fe7 	str	w7, [sp, #316]
    5b14:	b9400008 	ldr	w8, [x0]
    5b18:	b0ffffe0 	adrp	x0, 2000 <resid_._omp_fn.0+0x460>
    5b1c:	9b057c21 	mul	x1, x1, x5
    5b20:	91140000 	add	x0, x0, #0x500
    5b24:	b9013be8 	str	w8, [sp, #312]
    5b28:	f100003f 	cmp	x1, #0x0
    5b2c:	9a9fa021 	csel	x1, x1, xzr, ge  // ge = tcont
    5b30:	a91207e5 	stp	x5, x1, [sp, #288]
    5b34:	cb0100c5 	sub	x5, x6, x1
    5b38:	aa1c03e1 	mov	x1, x28
    5b3c:	f9009be5 	str	x5, [sp, #304]
    5b40:	97ffef14 	bl	1790 <GOMP_parallel@plt>
    5b44:	f00000a0 	adrp	x0, 1c000 <__FRAME_END__+0xfbe8>
    5b48:	b0000021 	adrp	x1, a000 <print_results_+0x3f0>
    5b4c:	b9400305 	ldr	w5, [x24]
    5b50:	1e6e1000 	fmov	d0, #1.000000000000000000e+00
    5b54:	f947e802 	ldr	x2, [x0, #4048]
    5b58:	fd008be0 	str	d0, [sp, #272]
    5b5c:	f9478f60 	ldr	x0, [x27, #3864]
    5b60:	b9400048 	ldr	w8, [x2]
    5b64:	fd47c821 	ldr	d1, [x1, #3984]
    5b68:	b9400007 	ldr	w7, [x0]
    5b6c:	51000903 	sub	w3, w8, #0x2
    5b70:	f947d341 	ldr	x1, [x26, #4000]
    5b74:	510008e0 	sub	w0, w7, #0x2
    5b78:	b94002e2 	ldr	w2, [x23]
    5b7c:	fd0063e1 	str	d1, [sp, #192]
    5b80:	b9400029 	ldr	w9, [x1]
    5b84:	1b050c17 	madd	w23, w0, w5, w3
    5b88:	51000921 	sub	w1, w9, #0x2
    5b8c:	1b0206f7 	madd	w23, w23, w2, w1
    5b90:	340002b7 	cbz	w23, 5be4 <zran3_+0x214>
    5b94:	d503201f 	nop
    5b98:	710002ff 	cmp	w23, #0x0
    5b9c:	120002e2 	and	w2, w23, #0x1
    5ba0:	5a82a442 	cneg	w2, w2, lt  // lt = tstop
    5ba4:	aa1903e1 	mov	x1, x25
    5ba8:	aa1903e0 	mov	x0, x25
    5bac:	7100045f 	cmp	w2, #0x1
    5bb0:	540021e0 	b.eq	5fec <zran3_+0x61c>  // b.none
    5bb4:	0b577ef7 	add	w23, w23, w23, lsr #31
    5bb8:	94001216 	bl	a410 <randlc_>
    5bbc:	13017ef7 	asr	w23, w23, #1
    5bc0:	35fffed7 	cbnz	w23, 5b98 <zran3_+0x1c8>
    5bc4:	f00000a0 	adrp	x0, 1c000 <__FRAME_END__+0xfbe8>
    5bc8:	fd408be0 	ldr	d0, [sp, #272]
    5bcc:	f947d35a 	ldr	x26, [x26, #4000]
    5bd0:	f947e801 	ldr	x1, [x0, #4048]
    5bd4:	f9478f60 	ldr	x0, [x27, #3864]
    5bd8:	b9400028 	ldr	w8, [x1]
    5bdc:	b9400349 	ldr	w9, [x26]
    5be0:	b9400007 	ldr	w7, [x0]
    5be4:	f00000a2 	adrp	x2, 1c000 <__FRAME_END__+0xfbe8>
    5be8:	f00000a5 	adrp	x5, 1c000 <__FRAME_END__+0xfbe8>
    5bec:	f00000a6 	adrp	x6, 1c000 <__FRAME_END__+0xfbe8>
    5bf0:	b0000020 	adrp	x0, a000 <print_results_+0x3f0>
    5bf4:	f947f042 	ldr	x2, [x2, #4064]
    5bf8:	9102e3f8 	add	x24, sp, #0xb8
    5bfc:	f947a4a5 	ldr	x5, [x5, #3912]
    5c00:	9102c3e1 	add	x1, sp, #0xb0
    5c04:	b9400043 	ldr	w3, [x2]
    5c08:	9102a3fa 	add	x26, sp, #0xa8
    5c0c:	f947c0c6 	ldr	x6, [x6, #3968]
    5c10:	4b090063 	sub	w3, w3, w9
    5c14:	b94000a5 	ldr	w5, [x5]
    5c18:	11000463 	add	w3, w3, #0x1
    5c1c:	fd47cc01 	ldr	d1, [x0, #3992]
    5c20:	aa1803e0 	mov	x0, x24
    5c24:	4b0800a5 	sub	w5, w5, w8
    5c28:	b94000d7 	ldr	w23, [x6]
    5c2c:	110008a2 	add	w2, w5, #0x2
    5c30:	b9008fe2 	str	w2, [sp, #140]
    5c34:	4b0702f7 	sub	w23, w23, w7
    5c38:	b9009fe3 	str	w3, [sp, #156]
    5c3c:	6d0b07e0 	stp	d0, d1, [sp, #176]
    5c40:	11000af7 	add	w23, w23, #0x2
    5c44:	940011f3 	bl	a410 <randlc_>
    5c48:	f00000a0 	adrp	x0, 1c000 <__FRAME_END__+0xfbe8>
    5c4c:	d280005b 	mov	x27, #0x2                   	// #2
    5c50:	f947b000 	ldr	x0, [x0, #3936]
    5c54:	d1002000 	sub	x0, x0, #0x8
    5c58:	f90037e0 	str	x0, [sp, #104]
    5c5c:	710006ff 	cmp	w23, #0x1
    5c60:	5400016d 	b.le	5c8c <zran3_+0x2bc>
    5c64:	d503201f 	nop
    5c68:	f94037e2 	ldr	x2, [sp, #104]
    5c6c:	aa1a03e1 	mov	x1, x26
    5c70:	fd405fe0 	ldr	d0, [sp, #184]
    5c74:	aa1803e0 	mov	x0, x24
    5c78:	fc3b7840 	str	d0, [x2, x27, lsl #3]
    5c7c:	9100077b 	add	x27, x27, #0x1
    5c80:	940011e4 	bl	a410 <randlc_>
    5c84:	6b1b02ff 	cmp	w23, w27
    5c88:	54ffff0a 	b.ge	5c68 <zran3_+0x298>  // b.tcont
    5c8c:	b9408fe4 	ldr	w4, [sp, #140]
    5c90:	910283e6 	add	x6, sp, #0xa0
    5c94:	910273e5 	add	x5, sp, #0x9c
    5c98:	aa1c03e1 	mov	x1, x28
    5c9c:	52800003 	mov	w3, #0x0                   	// #0
    5ca0:	52800002 	mov	w2, #0x0                   	// #0
    5ca4:	b0ffffe0 	adrp	x0, 2000 <resid_._omp_fn.0+0x460>
    5ca8:	910ec000 	add	x0, x0, #0x3b0
    5cac:	a91153f5 	stp	x21, x20, [sp, #272]
    5cb0:	f00000b8 	adrp	x24, 1c000 <__FRAME_END__+0xfbe8>
    5cb4:	a9125bf3 	stp	x19, x22, [sp, #288]
    5cb8:	a91317e6 	stp	x6, x5, [sp, #304]
    5cbc:	b90143f7 	str	w23, [sp, #320]
    5cc0:	b90147e4 	str	w4, [sp, #324]
    5cc4:	97ffeeb3 	bl	1790 <GOMP_parallel@plt>
    5cc8:	a9476bf7 	ldp	x23, x26, [sp, #112]
    5ccc:	aa1903e1 	mov	x1, x25
    5cd0:	f94043fb 	ldr	x27, [sp, #128]
    5cd4:	52800003 	mov	w3, #0x0                   	// #0
    5cd8:	52800002 	mov	w2, #0x0                   	// #0
    5cdc:	90000020 	adrp	x0, 9000 <MAIN__+0xf8c>
    5ce0:	9115d000 	add	x0, x0, #0x574
    5ce4:	a90c73f5 	stp	x21, x28, [sp, #192]
    5ce8:	a90d4ff4 	stp	x20, x19, [sp, #208]
    5cec:	a90e6ff6 	stp	x22, x27, [sp, #224]
    5cf0:	a90f5ffa 	stp	x26, x23, [sp, #240]
    5cf4:	a9107fff 	stp	xzr, xzr, [sp, #256]
    5cf8:	97ffeea6 	bl	1790 <GOMP_parallel@plt>
    5cfc:	b9400345 	ldr	w5, [x26]
    5d00:	b9400366 	ldr	w6, [x27]
    5d04:	aa1903e1 	mov	x1, x25
    5d08:	52800003 	mov	w3, #0x0                   	// #0
    5d0c:	52800002 	mov	w2, #0x0                   	// #0
    5d10:	b0ffffe0 	adrp	x0, 2000 <resid_._omp_fn.0+0x460>
    5d14:	9109c000 	add	x0, x0, #0x270
    5d18:	a90c5ff5 	stp	x21, x23, [sp, #192]
    5d1c:	a90d4ff4 	stp	x20, x19, [sp, #208]
    5d20:	f90073f6 	str	x22, [sp, #224]
    5d24:	291d17e6 	stp	w6, w5, [sp, #232]
    5d28:	97ffee9a 	bl	1790 <GOMP_parallel@plt>
    5d2c:	910653e2 	add	x2, sp, #0x194
    5d30:	b981abe7 	ldrsw	x7, [sp, #424]
    5d34:	b9817be5 	ldrsw	x5, [sp, #376]
    5d38:	1e7e1001 	fmov	d1, #-1.000000000000000000e+00
    5d3c:	b981a7e8 	ldrsw	x8, [sp, #420]
    5d40:	1e6e1000 	fmov	d0, #1.000000000000000000e+00
    5d44:	697e8046 	ldpsw	x6, x0, [x2, #-12]
    5d48:	910793e4 	add	x4, sp, #0x1e4
    5d4c:	6940844a 	ldpsw	x10, x1, [x2, #4]
    5d50:	b981afe2 	ldrsw	x2, [sp, #428]
    5d54:	9b135800 	madd	x0, x0, x19, x22
    5d58:	9b1400c6 	madd	x6, x6, x20, x0
    5d5c:	b9816be3 	ldrsw	x3, [sp, #360]
    5d60:	9b135821 	madd	x1, x1, x19, x22
    5d64:	b9815fe0 	ldrsw	x0, [sp, #348]
    5d68:	9b14054a 	madd	x10, x10, x20, x1
    5d6c:	b9816fe1 	ldrsw	x1, [sp, #364]
    5d70:	9b135842 	madd	x2, x2, x19, x22
    5d74:	b98187eb 	ldrsw	x11, [sp, #388]
    5d78:	9b1408e7 	madd	x7, x7, x20, x2
    5d7c:	b9817fe2 	ldrsw	x2, [sp, #380]
    5d80:	b9814fe9 	ldrsw	x9, [sp, #332]
    5d84:	9b135800 	madd	x0, x0, x19, x22
    5d88:	8b0800e7 	add	x7, x7, x8
    5d8c:	b98197e8 	ldrsw	x8, [sp, #404]
    5d90:	9b135821 	madd	x1, x1, x19, x22
    5d94:	8b0b00c6 	add	x6, x6, x11
    5d98:	9b135842 	madd	x2, x2, x19, x22
    5d9c:	8b08014a 	add	x10, x10, x8
    5da0:	9b1408a5 	madd	x5, x5, x20, x2
    5da4:	b9815be2 	ldrsw	x2, [sp, #344]
    5da8:	9b140463 	madd	x3, x3, x20, x1
    5dac:	b9813fe8 	ldrsw	x8, [sp, #316]
    5db0:	b9814be1 	ldrsw	x1, [sp, #328]
    5db4:	9b135929 	madd	x9, x9, x19, x22
    5db8:	b98177eb 	ldrsw	x11, [sp, #372]
    5dbc:	9b140042 	madd	x2, x2, x20, x0
    5dc0:	b9813be0 	ldrsw	x0, [sp, #312]
    5dc4:	b98167ec 	ldrsw	x12, [sp, #356]
    5dc8:	8b0b00a5 	add	x5, x5, x11
    5dcc:	b98157eb 	ldrsw	x11, [sp, #340]
    5dd0:	9b142421 	madd	x1, x1, x20, x9
    5dd4:	fc277aa1 	str	d1, [x21, x7, lsl #3]
    5dd8:	8b0c0063 	add	x3, x3, x12
    5ddc:	9b135907 	madd	x7, x8, x19, x22
    5de0:	b98147e9 	ldrsw	x9, [sp, #324]
    5de4:	fc2a7aa1 	str	d1, [x21, x10, lsl #3]
    5de8:	9b141c00 	madd	x0, x0, x20, x7
    5dec:	8b0b0042 	add	x2, x2, x11
    5df0:	b98137e7 	ldrsw	x7, [sp, #308]
    5df4:	fc267aa1 	str	d1, [x21, x6, lsl #3]
    5df8:	8b090021 	add	x1, x1, x9
    5dfc:	fc257aa1 	str	d1, [x21, x5, lsl #3]
    5e00:	8b070000 	add	x0, x0, x7
    5e04:	fc237aa1 	str	d1, [x21, x3, lsl #3]
    5e08:	910483e3 	add	x3, sp, #0x120
    5e0c:	fc227aa1 	str	d1, [x21, x2, lsl #3]
    5e10:	fc217aa1 	str	d1, [x21, x1, lsl #3]
    5e14:	fc207aa1 	str	d1, [x21, x0, lsl #3]
    5e18:	b9812fe2 	ldrsw	x2, [sp, #300]
    5e1c:	69409c68 	ldpsw	x8, x7, [x3, #4]
    5e20:	697f0469 	ldpsw	x9, x1, [x3, #-8]
    5e24:	9b135842 	madd	x2, x2, x19, x22
    5e28:	b9824fe0 	ldrsw	x0, [sp, #588]
    5e2c:	9b1408e7 	madd	x7, x7, x20, x2
    5e30:	b9824be6 	ldrsw	x6, [sp, #584]
    5e34:	b9823fe2 	ldrsw	x2, [sp, #572]
    5e38:	9b135821 	madd	x1, x1, x19, x22
    5e3c:	b9823be5 	ldrsw	x5, [sp, #568]
    5e40:	9b140529 	madd	x9, x9, x20, x1
    5e44:	9b135800 	madd	x0, x0, x19, x22
    5e48:	b9822fe1 	ldrsw	x1, [sp, #556]
    5e4c:	9b1400c6 	madd	x6, x6, x20, x0
    5e50:	b9822be3 	ldrsw	x3, [sp, #552]
    5e54:	9b135842 	madd	x2, x2, x19, x22
    5e58:	b9821fe0 	ldrsw	x0, [sp, #540]
    5e5c:	9b1408a5 	madd	x5, x5, x20, x2
    5e60:	b9821be2 	ldrsw	x2, [sp, #536]
    5e64:	b98117ea 	ldrsw	x10, [sp, #276]
    5e68:	9b135821 	madd	x1, x1, x19, x22
    5e6c:	b98247eb 	ldrsw	x11, [sp, #580]
    5e70:	8b0800e7 	add	x7, x7, x8
    5e74:	b9820fe8 	ldrsw	x8, [sp, #524]
    5e78:	9b140463 	madd	x3, x3, x20, x1
    5e7c:	9b135800 	madd	x0, x0, x19, x22
    5e80:	8b0a0129 	add	x9, x9, x10
    5e84:	b9820be1 	ldrsw	x1, [sp, #520]
    5e88:	9b140042 	madd	x2, x2, x20, x0
    5e8c:	b981ffea 	ldrsw	x10, [sp, #508]
    5e90:	8b0b00c6 	add	x6, x6, x11
    5e94:	b981fbe0 	ldrsw	x0, [sp, #504]
    5e98:	9b135908 	madd	x8, x8, x19, x22
    5e9c:	b98237eb 	ldrsw	x11, [sp, #564]
    5ea0:	b98227ec 	ldrsw	x12, [sp, #548]
    5ea4:	9b142021 	madd	x1, x1, x20, x8
    5ea8:	8b0b00a5 	add	x5, x5, x11
    5eac:	b98217eb 	ldrsw	x11, [sp, #532]
    5eb0:	fc277aa1 	str	d1, [x21, x7, lsl #3]
    5eb4:	8b0c0063 	add	x3, x3, x12
    5eb8:	9b135947 	madd	x7, x10, x19, x22
    5ebc:	b98207e8 	ldrsw	x8, [sp, #516]
    5ec0:	fc297aa1 	str	d1, [x21, x9, lsl #3]
    5ec4:	9b141c00 	madd	x0, x0, x20, x7
    5ec8:	8b0b0042 	add	x2, x2, x11
    5ecc:	b981f7e7 	ldrsw	x7, [sp, #500]
    5ed0:	fc267aa0 	str	d0, [x21, x6, lsl #3]
    5ed4:	8b080021 	add	x1, x1, x8
    5ed8:	fc257aa0 	str	d0, [x21, x5, lsl #3]
    5edc:	8b070000 	add	x0, x0, x7
    5ee0:	fc237aa0 	str	d0, [x21, x3, lsl #3]
    5ee4:	fc227aa0 	str	d0, [x21, x2, lsl #3]
    5ee8:	fc217aa0 	str	d0, [x21, x1, lsl #3]
    5eec:	fc207aa0 	str	d0, [x21, x0, lsl #3]
    5ef0:	697e9c83 	ldpsw	x3, x7, [x4, #-12]
    5ef4:	69408485 	ldpsw	x5, x1, [x4, #4]
    5ef8:	b981cfe0 	ldrsw	x0, [sp, #460]
    5efc:	9b1358e7 	madd	x7, x7, x19, x22
    5f00:	b981cbe2 	ldrsw	x2, [sp, #456]
    5f04:	9b141c63 	madd	x3, x3, x20, x7
    5f08:	9b135821 	madd	x1, x1, x19, x22
    5f0c:	b981bfe6 	ldrsw	x6, [sp, #444]
    5f10:	9b1404a5 	madd	x5, x5, x20, x1
    5f14:	b98002f7 	ldrsw	x23, [x23]
    5f18:	b981e7e7 	ldrsw	x7, [sp, #484]
    5f1c:	9b135800 	madd	x0, x0, x19, x22
    5f20:	b981bbe1 	ldrsw	x1, [sp, #440]
    5f24:	9b140042 	madd	x2, x2, x20, x0
    5f28:	f10002ff 	cmp	x23, #0x0
    5f2c:	b9800340 	ldrsw	x0, [x26]
    5f30:	8b0700a5 	add	x5, x5, x7
    5f34:	b981d7e9 	ldrsw	x9, [sp, #468]
    5f38:	f9478b07 	ldr	x7, [x24, #3856]
    5f3c:	9b1358c6 	madd	x6, x6, x19, x22
    5f40:	9a9fa2f7 	csel	x23, x23, xzr, ge  // ge = tcont
    5f44:	b981c7e8 	ldrsw	x8, [sp, #452]
    5f48:	9b141821 	madd	x1, x1, x20, x6
    5f4c:	8b090063 	add	x3, x3, x9
    5f50:	b981b7e6 	ldrsw	x6, [sp, #436]
    5f54:	8b080042 	add	x2, x2, x8
    5f58:	9b177c13 	mul	x19, x0, x23
    5f5c:	fc257aa0 	str	d0, [x21, x5, lsl #3]
    5f60:	8b060020 	add	x0, x1, x6
    5f64:	b94000e1 	ldr	w1, [x7]
    5f68:	fc237aa0 	str	d0, [x21, x3, lsl #3]
    5f6c:	f100027f 	cmp	x19, #0x0
    5f70:	fc227aa0 	str	d0, [x21, x2, lsl #3]
    5f74:	9a9fa273 	csel	x19, x19, xzr, ge  // ge = tcont
    5f78:	aa3703f4 	mvn	x20, x23
    5f7c:	fc207aa0 	str	d0, [x21, x0, lsl #3]
    5f80:	cb130294 	sub	x20, x20, x19
    5f84:	350006a1 	cbnz	w1, 6058 <zran3_+0x688>
    5f88:	f9403be4 	ldr	x4, [sp, #112]
    5f8c:	a90c13f5 	stp	x21, x4, [sp, #192]
    5f90:	aa1903e1 	mov	x1, x25
    5f94:	f9403fe4 	ldr	x4, [sp, #120]
    5f98:	f9006be4 	str	x4, [sp, #208]
    5f9c:	f94043e4 	ldr	x4, [sp, #128]
    5fa0:	f0ffffe0 	adrp	x0, 4000 <interp_._omp_fn.1+0xc8c>
    5fa4:	52800003 	mov	w3, #0x0                   	// #0
    5fa8:	91294000 	add	x0, x0, #0xa50
    5fac:	52800002 	mov	w2, #0x0                   	// #0
    5fb0:	f9006fe4 	str	x4, [sp, #216]
    5fb4:	a90e4ff7 	stp	x23, x19, [sp, #224]
    5fb8:	f9007bf4 	str	x20, [sp, #240]
    5fbc:	97ffedf5 	bl	1790 <GOMP_parallel@plt>
    5fc0:	f9478b18 	ldr	x24, [x24, #3856]
    5fc4:	b9400300 	ldr	w0, [x24]
    5fc8:	35000520 	cbnz	w0, 606c <zran3_+0x69c>
    5fcc:	a9407bfd 	ldp	x29, x30, [sp]
    5fd0:	a94153f3 	ldp	x19, x20, [sp, #16]
    5fd4:	a9425bf5 	ldp	x21, x22, [sp, #32]
    5fd8:	a94363f7 	ldp	x23, x24, [sp, #48]
    5fdc:	a9446bf9 	ldp	x25, x26, [sp, #64]
    5fe0:	a94573fb 	ldp	x27, x28, [sp, #80]
    5fe4:	910943ff 	add	sp, sp, #0x250
    5fe8:	d65f03c0 	ret
    5fec:	0b577ef7 	add	w23, w23, w23, lsr #31
    5ff0:	aa1c03e0 	mov	x0, x28
    5ff4:	94001107 	bl	a410 <randlc_>
    5ff8:	aa1903e1 	mov	x1, x25
    5ffc:	aa1903e0 	mov	x0, x25
    6000:	13017ef7 	asr	w23, w23, #1
    6004:	94001103 	bl	a410 <randlc_>
    6008:	35ffdc97 	cbnz	w23, 5b98 <zran3_+0x1c8>
    600c:	17fffeee 	b	5bc4 <zran3_+0x1f4>
    6010:	0b5a7f5a 	add	w26, w26, w26, lsr #31
    6014:	aa1c03e0 	mov	x0, x28
    6018:	940010fe 	bl	a410 <randlc_>
    601c:	aa1903e1 	mov	x1, x25
    6020:	aa1903e0 	mov	x0, x25
    6024:	13017f5a 	asr	w26, w26, #1
    6028:	940010fa 	bl	a410 <randlc_>
    602c:	35ffd13a 	cbnz	w26, 5a50 <zran3_+0x80>
    6030:	17fffe93 	b	5a7c <zran3_+0xac>
    6034:	0b5a7f5a 	add	w26, w26, w26, lsr #31
    6038:	aa1c03e0 	mov	x0, x28
    603c:	940010f5 	bl	a410 <randlc_>
    6040:	aa1903e1 	mov	x1, x25
    6044:	aa1903e0 	mov	x0, x25
    6048:	13017f5a 	asr	w26, w26, #1
    604c:	940010f1 	bl	a410 <randlc_>
    6050:	35ffd2da 	cbnz	w26, 5aa8 <zran3_+0xd8>
    6054:	17fffea0 	b	5ad4 <zran3_+0x104>
    6058:	b0000020 	adrp	x0, b000 <_IO_stdin_used+0x620>
    605c:	91006000 	add	x0, x0, #0x18
    6060:	91003000 	add	x0, x0, #0xc
    6064:	94001117 	bl	a4c0 <timer_start_>
    6068:	17ffffc8 	b	5f88 <zran3_+0x5b8>
    606c:	b0000020 	adrp	x0, b000 <_IO_stdin_used+0x620>
    6070:	91006000 	add	x0, x0, #0x18
    6074:	91003000 	add	x0, x0, #0xc
    6078:	94001122 	bl	a500 <timer_stop_>
    607c:	a9407bfd 	ldp	x29, x30, [sp]
    6080:	a94153f3 	ldp	x19, x20, [sp, #16]
    6084:	a9425bf5 	ldp	x21, x22, [sp, #32]
    6088:	a94363f7 	ldp	x23, x24, [sp, #48]
    608c:	a9446bf9 	ldp	x25, x26, [sp, #64]
    6090:	a94573fb 	ldp	x27, x28, [sp, #80]
    6094:	910943ff 	add	sp, sp, #0x250
    6098:	d65f03c0 	ret
    609c:	1e604020 	fmov	d0, d1
    60a0:	910303f9 	add	x25, sp, #0xc0
    60a4:	910443fc 	add	x28, sp, #0x110
    60a8:	fd0053e1 	str	d1, [sp, #160]
    60ac:	17fffe8b 	b	5ad8 <zran3_+0x108>

00000000000060b0 <zero3_>:
    60b0:	aa0103e6 	mov	x6, x1
    60b4:	a9bc7bfd 	stp	x29, x30, [sp, #-64]!
    60b8:	aa0303e1 	mov	x1, x3
    60bc:	910003fd 	mov	x29, sp
    60c0:	b9400048 	ldr	w8, [x2]
    60c4:	aa0003ea 	mov	x10, x0
    60c8:	b98000c5 	ldrsw	x5, [x6]
    60cc:	52800003 	mov	w3, #0x0                   	// #0
    60d0:	b9400029 	ldr	w9, [x1]
    60d4:	52800002 	mov	w2, #0x0                   	// #0
    60d8:	f10000bf 	cmp	x5, #0x0
    60dc:	93407d04 	sxtw	x4, w8
    60e0:	9a9fa0a5 	csel	x5, x5, xzr, ge  // ge = tcont
    60e4:	910043e1 	add	x1, sp, #0x10
    60e8:	aa2503e7 	mvn	x7, x5
    60ec:	90ffffe0 	adrp	x0, 2000 <resid_._omp_fn.0+0x460>
    60f0:	91140000 	add	x0, x0, #0x500
    60f4:	a9011bea 	stp	x10, x6, [sp, #16]
    60f8:	9b057c84 	mul	x4, x4, x5
    60fc:	290723e9 	stp	w9, w8, [sp, #56]
    6100:	f100009f 	cmp	x4, #0x0
    6104:	9a9fa084 	csel	x4, x4, xzr, ge  // ge = tcont
    6108:	a90213e5 	stp	x5, x4, [sp, #32]
    610c:	cb0400e4 	sub	x4, x7, x4
    6110:	f9001be4 	str	x4, [sp, #48]
    6114:	97ffed9f 	bl	1790 <GOMP_parallel@plt>
    6118:	a8c47bfd 	ldp	x29, x30, [sp], #64
    611c:	d65f03c0 	ret

0000000000006120 <setup_>:
    6120:	d10d83ff 	sub	sp, sp, #0x360
    6124:	d00000aa 	adrp	x10, 1c000 <__FRAME_END__+0xfbe8>
    6128:	d00000a9 	adrp	x9, 1c000 <__FRAME_END__+0xfbe8>
    612c:	d00000a8 	adrp	x8, 1c000 <__FRAME_END__+0xfbe8>
    6130:	a9007bfd 	stp	x29, x30, [sp]
    6134:	910003fd 	mov	x29, sp
    6138:	f947954e 	ldr	x14, [x10, #3880]
    613c:	a90363f7 	stp	x23, x24, [sp, #48]
    6140:	d00000b8 	adrp	x24, 1c000 <__FRAME_END__+0xfbe8>
    6144:	f947ed26 	ldr	x6, [x9, #4056]
    6148:	a90153f3 	stp	x19, x20, [sp, #16]
    614c:	910383f3 	add	x19, sp, #0xe0
    6150:	f947e304 	ldr	x4, [x24, #4032]
    6154:	a9025bf5 	stp	x21, x22, [sp, #32]
    6158:	aa0003f6 	mov	x22, x0
    615c:	f947d50f 	ldr	x15, [x8, #4008]
    6160:	a9046bf9 	stp	x25, x26, [sp, #64]
    6164:	b9400084 	ldr	w4, [x4]
    6168:	a90573fb 	stp	x27, x28, [sp, #80]
    616c:	aa0103f7 	mov	x23, x1
    6170:	5100048d 	sub	w13, w4, #0x1
    6174:	93407c8b 	sxtw	x11, w4
    6178:	aa0203f9 	mov	x25, x2
    617c:	d1000567 	sub	x7, x11, #0x1
    6180:	aa0303f5 	mov	x21, x3
    6184:	8b0704e5 	add	x5, x7, x7, lsl #1
    6188:	910004b0 	add	x16, x5, #0x1
    618c:	b86779d1 	ldr	w17, [x14, x7, lsl #2]
    6190:	910008ac 	add	x12, x5, #0x2
    6194:	b86778c0 	ldr	w0, [x6, x7, lsl #2]
    6198:	b8257a71 	str	w17, [x19, x5, lsl #2]
    619c:	b8307a60 	str	w0, [x19, x16, lsl #2]
    61a0:	b86779e0 	ldr	w0, [x15, x7, lsl #2]
    61a4:	b82c7a60 	str	w0, [x19, x12, lsl #2]
    61a8:	710001bf 	cmp	w13, #0x0
    61ac:	54005d8d 	b.le	6d5c <setup_+0xc3c>
    61b0:	d2800022 	mov	x2, #0x1                   	// #1
    61b4:	52800060 	mov	w0, #0x3                   	// #3
    61b8:	910343e1 	add	x1, sp, #0xd0
    61bc:	d1000cae 	sub	x14, x5, #0x3
    61c0:	9b200880 	smaddl	x0, w4, w0, x2
    61c4:	71000882 	subs	w2, w4, #0x2
    61c8:	b8607826 	ldr	w6, [x1, x0, lsl #2]
    61cc:	0b467cc0 	add	w0, w6, w6, lsr #31
    61d0:	13017c00 	asr	w0, w0, #1
    61d4:	b82e7a60 	str	w0, [x19, x14, lsl #2]
    61d8:	540007e0 	b.eq	62d4 <setup_+0x1b4>  // b.none
    61dc:	710000df 	cmp	w6, #0x0
    61e0:	11000cc0 	add	w0, w6, #0x3
    61e4:	d10018a3 	sub	x3, x5, #0x6
    61e8:	1a86b000 	csel	w0, w0, w6, lt  // lt = tstop
    61ec:	13027c00 	asr	w0, w0, #2
    61f0:	b8237a60 	str	w0, [x19, x3, lsl #2]
    61f4:	71000c9f 	cmp	w4, #0x3
    61f8:	540006e0 	b.eq	62d4 <setup_+0x1b4>  // b.none
    61fc:	710000df 	cmp	w6, #0x0
    6200:	11001cc0 	add	w0, w6, #0x7
    6204:	d10024a3 	sub	x3, x5, #0x9
    6208:	1a86b000 	csel	w0, w0, w6, lt  // lt = tstop
    620c:	13037c00 	asr	w0, w0, #3
    6210:	b8237a60 	str	w0, [x19, x3, lsl #2]
    6214:	7100109f 	cmp	w4, #0x4
    6218:	540005e0 	b.eq	62d4 <setup_+0x1b4>  // b.none
    621c:	710000df 	cmp	w6, #0x0
    6220:	11003cc0 	add	w0, w6, #0xf
    6224:	d10030a3 	sub	x3, x5, #0xc
    6228:	1a86b000 	csel	w0, w0, w6, lt  // lt = tstop
    622c:	13047c00 	asr	w0, w0, #4
    6230:	b8237a60 	str	w0, [x19, x3, lsl #2]
    6234:	7100149f 	cmp	w4, #0x5
    6238:	540004e0 	b.eq	62d4 <setup_+0x1b4>  // b.none
    623c:	710000df 	cmp	w6, #0x0
    6240:	11007cc0 	add	w0, w6, #0x1f
    6244:	d1003ca3 	sub	x3, x5, #0xf
    6248:	1a86b000 	csel	w0, w0, w6, lt  // lt = tstop
    624c:	13057c00 	asr	w0, w0, #5
    6250:	b8237a60 	str	w0, [x19, x3, lsl #2]
    6254:	7100189f 	cmp	w4, #0x6
    6258:	540003e0 	b.eq	62d4 <setup_+0x1b4>  // b.none
    625c:	710000df 	cmp	w6, #0x0
    6260:	1100fcc0 	add	w0, w6, #0x3f
    6264:	d10048a3 	sub	x3, x5, #0x12
    6268:	1a86b000 	csel	w0, w0, w6, lt  // lt = tstop
    626c:	13067c00 	asr	w0, w0, #6
    6270:	b8237a60 	str	w0, [x19, x3, lsl #2]
    6274:	71001c9f 	cmp	w4, #0x7
    6278:	540002e0 	b.eq	62d4 <setup_+0x1b4>  // b.none
    627c:	710000df 	cmp	w6, #0x0
    6280:	1101fcc0 	add	w0, w6, #0x7f
    6284:	d10054a3 	sub	x3, x5, #0x15
    6288:	1a86b000 	csel	w0, w0, w6, lt  // lt = tstop
    628c:	13077c00 	asr	w0, w0, #7
    6290:	b8237a60 	str	w0, [x19, x3, lsl #2]
    6294:	7100209f 	cmp	w4, #0x8
    6298:	540001e0 	b.eq	62d4 <setup_+0x1b4>  // b.none
    629c:	710000df 	cmp	w6, #0x0
    62a0:	1103fcc0 	add	w0, w6, #0xff
    62a4:	d10060a3 	sub	x3, x5, #0x18
    62a8:	1a86b000 	csel	w0, w0, w6, lt  // lt = tstop
    62ac:	13087c00 	asr	w0, w0, #8
    62b0:	b8237a60 	str	w0, [x19, x3, lsl #2]
    62b4:	7100249f 	cmp	w4, #0x9
    62b8:	540000e0 	b.eq	62d4 <setup_+0x1b4>  // b.none
    62bc:	710000df 	cmp	w6, #0x0
    62c0:	1107fcc0 	add	w0, w6, #0x1ff
    62c4:	d1006ca3 	sub	x3, x5, #0x1b
    62c8:	1a86b000 	csel	w0, w0, w6, lt  // lt = tstop
    62cc:	13097c00 	asr	w0, w0, #9
    62d0:	b8237a60 	str	w0, [x19, x3, lsl #2]
    62d4:	52800060 	mov	w0, #0x3                   	// #3
    62d8:	d2800043 	mov	x3, #0x2                   	// #2
    62dc:	d10008af 	sub	x15, x5, #0x2
    62e0:	9b200c80 	smaddl	x0, w4, w0, x3
    62e4:	b8607826 	ldr	w6, [x1, x0, lsl #2]
    62e8:	0b467cc0 	add	w0, w6, w6, lsr #31
    62ec:	13017c00 	asr	w0, w0, #1
    62f0:	b82f7a60 	str	w0, [x19, x15, lsl #2]
    62f4:	340007e2 	cbz	w2, 63f0 <setup_+0x2d0>
    62f8:	710000df 	cmp	w6, #0x0
    62fc:	11000cc0 	add	w0, w6, #0x3
    6300:	d10014a3 	sub	x3, x5, #0x5
    6304:	1a86b000 	csel	w0, w0, w6, lt  // lt = tstop
    6308:	13027c00 	asr	w0, w0, #2
    630c:	b8237a60 	str	w0, [x19, x3, lsl #2]
    6310:	71000c9f 	cmp	w4, #0x3
    6314:	540006e0 	b.eq	63f0 <setup_+0x2d0>  // b.none
    6318:	710000df 	cmp	w6, #0x0
    631c:	11001cc0 	add	w0, w6, #0x7
    6320:	d10020a3 	sub	x3, x5, #0x8
    6324:	1a86b000 	csel	w0, w0, w6, lt  // lt = tstop
    6328:	13037c00 	asr	w0, w0, #3
    632c:	b8237a60 	str	w0, [x19, x3, lsl #2]
    6330:	7100109f 	cmp	w4, #0x4
    6334:	540005e0 	b.eq	63f0 <setup_+0x2d0>  // b.none
    6338:	710000df 	cmp	w6, #0x0
    633c:	11003cc0 	add	w0, w6, #0xf
    6340:	d1002ca3 	sub	x3, x5, #0xb
    6344:	1a86b000 	csel	w0, w0, w6, lt  // lt = tstop
    6348:	13047c00 	asr	w0, w0, #4
    634c:	b8237a60 	str	w0, [x19, x3, lsl #2]
    6350:	7100149f 	cmp	w4, #0x5
    6354:	540004e0 	b.eq	63f0 <setup_+0x2d0>  // b.none
    6358:	710000df 	cmp	w6, #0x0
    635c:	11007cc0 	add	w0, w6, #0x1f
    6360:	d10038a3 	sub	x3, x5, #0xe
    6364:	1a86b000 	csel	w0, w0, w6, lt  // lt = tstop
    6368:	13057c00 	asr	w0, w0, #5
    636c:	b8237a60 	str	w0, [x19, x3, lsl #2]
    6370:	7100189f 	cmp	w4, #0x6
    6374:	540003e0 	b.eq	63f0 <setup_+0x2d0>  // b.none
    6378:	710000df 	cmp	w6, #0x0
    637c:	1100fcc0 	add	w0, w6, #0x3f
    6380:	d10044a3 	sub	x3, x5, #0x11
    6384:	1a86b000 	csel	w0, w0, w6, lt  // lt = tstop
    6388:	13067c00 	asr	w0, w0, #6
    638c:	b8237a60 	str	w0, [x19, x3, lsl #2]
    6390:	71001c9f 	cmp	w4, #0x7
    6394:	540002e0 	b.eq	63f0 <setup_+0x2d0>  // b.none
    6398:	710000df 	cmp	w6, #0x0
    639c:	1101fcc0 	add	w0, w6, #0x7f
    63a0:	d10050a3 	sub	x3, x5, #0x14
    63a4:	1a86b000 	csel	w0, w0, w6, lt  // lt = tstop
    63a8:	13077c00 	asr	w0, w0, #7
    63ac:	b8237a60 	str	w0, [x19, x3, lsl #2]
    63b0:	7100209f 	cmp	w4, #0x8
    63b4:	540001e0 	b.eq	63f0 <setup_+0x2d0>  // b.none
    63b8:	710000df 	cmp	w6, #0x0
    63bc:	1103fcc0 	add	w0, w6, #0xff
    63c0:	d1005ca3 	sub	x3, x5, #0x17
    63c4:	1a86b000 	csel	w0, w0, w6, lt  // lt = tstop
    63c8:	13087c00 	asr	w0, w0, #8
    63cc:	b8237a60 	str	w0, [x19, x3, lsl #2]
    63d0:	7100249f 	cmp	w4, #0x9
    63d4:	540000e0 	b.eq	63f0 <setup_+0x2d0>  // b.none
    63d8:	710000df 	cmp	w6, #0x0
    63dc:	1107fcc0 	add	w0, w6, #0x1ff
    63e0:	d10068a3 	sub	x3, x5, #0x1a
    63e4:	1a86b000 	csel	w0, w0, w6, lt  // lt = tstop
    63e8:	13097c00 	asr	w0, w0, #9
    63ec:	b8237a60 	str	w0, [x19, x3, lsl #2]
    63f0:	91000560 	add	x0, x11, #0x1
    63f4:	d10004b1 	sub	x17, x5, #0x1
    63f8:	8b000400 	add	x0, x0, x0, lsl #1
    63fc:	b8607826 	ldr	w6, [x1, x0, lsl #2]
    6400:	0b467cc0 	add	w0, w6, w6, lsr #31
    6404:	13017c00 	asr	w0, w0, #1
    6408:	b8317a60 	str	w0, [x19, x17, lsl #2]
    640c:	340007e2 	cbz	w2, 6508 <setup_+0x3e8>
    6410:	710000df 	cmp	w6, #0x0
    6414:	11000cc0 	add	w0, w6, #0x3
    6418:	d10010a1 	sub	x1, x5, #0x4
    641c:	1a86b000 	csel	w0, w0, w6, lt  // lt = tstop
    6420:	13027c00 	asr	w0, w0, #2
    6424:	b8217a60 	str	w0, [x19, x1, lsl #2]
    6428:	71000c9f 	cmp	w4, #0x3
    642c:	540006e0 	b.eq	6508 <setup_+0x3e8>  // b.none
    6430:	710000df 	cmp	w6, #0x0
    6434:	11001cc0 	add	w0, w6, #0x7
    6438:	d1001ca1 	sub	x1, x5, #0x7
    643c:	1a86b000 	csel	w0, w0, w6, lt  // lt = tstop
    6440:	13037c00 	asr	w0, w0, #3
    6444:	b8217a60 	str	w0, [x19, x1, lsl #2]
    6448:	7100109f 	cmp	w4, #0x4
    644c:	540005e0 	b.eq	6508 <setup_+0x3e8>  // b.none
    6450:	710000df 	cmp	w6, #0x0
    6454:	11003cc0 	add	w0, w6, #0xf
    6458:	d10028a1 	sub	x1, x5, #0xa
    645c:	1a86b000 	csel	w0, w0, w6, lt  // lt = tstop
    6460:	13047c00 	asr	w0, w0, #4
    6464:	b8217a60 	str	w0, [x19, x1, lsl #2]
    6468:	7100149f 	cmp	w4, #0x5
    646c:	540004e0 	b.eq	6508 <setup_+0x3e8>  // b.none
    6470:	710000df 	cmp	w6, #0x0
    6474:	11007cc0 	add	w0, w6, #0x1f
    6478:	d10034a1 	sub	x1, x5, #0xd
    647c:	1a86b000 	csel	w0, w0, w6, lt  // lt = tstop
    6480:	13057c00 	asr	w0, w0, #5
    6484:	b8217a60 	str	w0, [x19, x1, lsl #2]
    6488:	7100189f 	cmp	w4, #0x6
    648c:	540003e0 	b.eq	6508 <setup_+0x3e8>  // b.none
    6490:	710000df 	cmp	w6, #0x0
    6494:	1100fcc0 	add	w0, w6, #0x3f
    6498:	d10040a1 	sub	x1, x5, #0x10
    649c:	1a86b000 	csel	w0, w0, w6, lt  // lt = tstop
    64a0:	13067c00 	asr	w0, w0, #6
    64a4:	b8217a60 	str	w0, [x19, x1, lsl #2]
    64a8:	71001c9f 	cmp	w4, #0x7
    64ac:	540002e0 	b.eq	6508 <setup_+0x3e8>  // b.none
    64b0:	710000df 	cmp	w6, #0x0
    64b4:	1101fcc0 	add	w0, w6, #0x7f
    64b8:	d1004ca1 	sub	x1, x5, #0x13
    64bc:	1a86b000 	csel	w0, w0, w6, lt  // lt = tstop
    64c0:	13077c00 	asr	w0, w0, #7
    64c4:	b8217a60 	str	w0, [x19, x1, lsl #2]
    64c8:	7100209f 	cmp	w4, #0x8
    64cc:	540001e0 	b.eq	6508 <setup_+0x3e8>  // b.none
    64d0:	710000df 	cmp	w6, #0x0
    64d4:	1103fcc0 	add	w0, w6, #0xff
    64d8:	d10058a1 	sub	x1, x5, #0x16
    64dc:	1a86b000 	csel	w0, w0, w6, lt  // lt = tstop
    64e0:	13087c00 	asr	w0, w0, #8
    64e4:	b8217a60 	str	w0, [x19, x1, lsl #2]
    64e8:	7100249f 	cmp	w4, #0x9
    64ec:	540000e0 	b.eq	6508 <setup_+0x3e8>  // b.none
    64f0:	710000df 	cmp	w6, #0x0
    64f4:	1107fcc0 	add	w0, w6, #0x1ff
    64f8:	d10064a1 	sub	x1, x5, #0x19
    64fc:	1a86b000 	csel	w0, w0, w6, lt  // lt = tstop
    6500:	13097c00 	asr	w0, w0, #9
    6504:	b8217a60 	str	w0, [x19, x1, lsl #2]
    6508:	b90002a4 	str	w4, [x21]
    650c:	7100009f 	cmp	w4, #0x0
    6510:	5400206d 	b.le	691c <setup_+0x7fc>
    6514:	d1000961 	sub	x1, x11, #0x2
    6518:	b8657a72 	ldr	w18, [x19, x5, lsl #2]
    651c:	f947954a 	ldr	x10, [x10, #3880]
    6520:	8b010426 	add	x6, x1, x1, lsl #1
    6524:	f947ed29 	ldr	x9, [x9, #4056]
    6528:	f947d508 	ldr	x8, [x8, #4008]
    652c:	b8277952 	str	w18, [x10, x7, lsl #2]
    6530:	b8667a74 	ldr	w20, [x19, x6, lsl #2]
    6534:	b8707a63 	ldr	w3, [x19, x16, lsl #2]
    6538:	b86c7a60 	ldr	w0, [x19, x12, lsl #2]
    653c:	b86f7a7a 	ldr	w26, [x19, x15, lsl #2]
    6540:	b8277923 	str	w3, [x9, x7, lsl #2]
    6544:	b8277900 	str	w0, [x8, x7, lsl #2]
    6548:	b8217954 	str	w20, [x10, x1, lsl #2]
    654c:	b8717a74 	ldr	w20, [x19, x17, lsl #2]
    6550:	b821793a 	str	w26, [x9, x1, lsl #2]
    6554:	b8217914 	str	w20, [x8, x1, lsl #2]
    6558:	34000a82 	cbz	w2, 66a8 <setup_+0x588>
    655c:	51000c94 	sub	w20, w4, #0x3
    6560:	d1000cde 	sub	x30, x6, #0x3
    6564:	d10008dc 	sub	x28, x6, #0x2
    6568:	d10004db 	sub	x27, x6, #0x1
    656c:	93407e9a 	sxtw	x26, w20
    6570:	b87e7a7e 	ldr	w30, [x19, x30, lsl #2]
    6574:	b87c7a7c 	ldr	w28, [x19, x28, lsl #2]
    6578:	b87b7a7b 	ldr	w27, [x19, x27, lsl #2]
    657c:	b83a795e 	str	w30, [x10, x26, lsl #2]
    6580:	b83a793c 	str	w28, [x9, x26, lsl #2]
    6584:	b83a791b 	str	w27, [x8, x26, lsl #2]
    6588:	34000914 	cbz	w20, 66a8 <setup_+0x588>
    658c:	51001094 	sub	w20, w4, #0x4
    6590:	d10018de 	sub	x30, x6, #0x6
    6594:	d10014dc 	sub	x28, x6, #0x5
    6598:	d10010db 	sub	x27, x6, #0x4
    659c:	93407e9a 	sxtw	x26, w20
    65a0:	b87e7a7e 	ldr	w30, [x19, x30, lsl #2]
    65a4:	b87c7a7c 	ldr	w28, [x19, x28, lsl #2]
    65a8:	b87b7a7b 	ldr	w27, [x19, x27, lsl #2]
    65ac:	b83a795e 	str	w30, [x10, x26, lsl #2]
    65b0:	b83a793c 	str	w28, [x9, x26, lsl #2]
    65b4:	b83a791b 	str	w27, [x8, x26, lsl #2]
    65b8:	34000794 	cbz	w20, 66a8 <setup_+0x588>
    65bc:	51001494 	sub	w20, w4, #0x5
    65c0:	d10024de 	sub	x30, x6, #0x9
    65c4:	d10020dc 	sub	x28, x6, #0x8
    65c8:	d1001cdb 	sub	x27, x6, #0x7
    65cc:	93407e9a 	sxtw	x26, w20
    65d0:	b87e7a7e 	ldr	w30, [x19, x30, lsl #2]
    65d4:	b87c7a7c 	ldr	w28, [x19, x28, lsl #2]
    65d8:	b87b7a7b 	ldr	w27, [x19, x27, lsl #2]
    65dc:	b83a795e 	str	w30, [x10, x26, lsl #2]
    65e0:	b83a793c 	str	w28, [x9, x26, lsl #2]
    65e4:	b83a791b 	str	w27, [x8, x26, lsl #2]
    65e8:	34000614 	cbz	w20, 66a8 <setup_+0x588>
    65ec:	51001894 	sub	w20, w4, #0x6
    65f0:	d10030de 	sub	x30, x6, #0xc
    65f4:	d1002cdc 	sub	x28, x6, #0xb
    65f8:	d10028db 	sub	x27, x6, #0xa
    65fc:	93407e9a 	sxtw	x26, w20
    6600:	b87e7a7e 	ldr	w30, [x19, x30, lsl #2]
    6604:	b87c7a7c 	ldr	w28, [x19, x28, lsl #2]
    6608:	b87b7a7b 	ldr	w27, [x19, x27, lsl #2]
    660c:	b83a795e 	str	w30, [x10, x26, lsl #2]
    6610:	b83a793c 	str	w28, [x9, x26, lsl #2]
    6614:	b83a791b 	str	w27, [x8, x26, lsl #2]
    6618:	34000494 	cbz	w20, 66a8 <setup_+0x588>
    661c:	51001c94 	sub	w20, w4, #0x7
    6620:	d1003cde 	sub	x30, x6, #0xf
    6624:	d10038dc 	sub	x28, x6, #0xe
    6628:	d10034db 	sub	x27, x6, #0xd
    662c:	93407e9a 	sxtw	x26, w20
    6630:	b87e7a7e 	ldr	w30, [x19, x30, lsl #2]
    6634:	b87c7a7c 	ldr	w28, [x19, x28, lsl #2]
    6638:	b87b7a7b 	ldr	w27, [x19, x27, lsl #2]
    663c:	b83a795e 	str	w30, [x10, x26, lsl #2]
    6640:	b83a793c 	str	w28, [x9, x26, lsl #2]
    6644:	b83a791b 	str	w27, [x8, x26, lsl #2]
    6648:	34000314 	cbz	w20, 66a8 <setup_+0x588>
    664c:	51002094 	sub	w20, w4, #0x8
    6650:	d10048de 	sub	x30, x6, #0x12
    6654:	d10044dc 	sub	x28, x6, #0x11
    6658:	d10040db 	sub	x27, x6, #0x10
    665c:	93407e9a 	sxtw	x26, w20
    6660:	b87e7a7e 	ldr	w30, [x19, x30, lsl #2]
    6664:	b87c7a7c 	ldr	w28, [x19, x28, lsl #2]
    6668:	b87b7a7b 	ldr	w27, [x19, x27, lsl #2]
    666c:	b83a795e 	str	w30, [x10, x26, lsl #2]
    6670:	b83a793c 	str	w28, [x9, x26, lsl #2]
    6674:	b83a791b 	str	w27, [x8, x26, lsl #2]
    6678:	34000194 	cbz	w20, 66a8 <setup_+0x588>
    667c:	51002494 	sub	w20, w4, #0x9
    6680:	d10054db 	sub	x27, x6, #0x15
    6684:	d10050da 	sub	x26, x6, #0x14
    6688:	d1004cc6 	sub	x6, x6, #0x13
    668c:	93407e94 	sxtw	x20, w20
    6690:	b87b7a7b 	ldr	w27, [x19, x27, lsl #2]
    6694:	b87a7a7a 	ldr	w26, [x19, x26, lsl #2]
    6698:	b8667a66 	ldr	w6, [x19, x6, lsl #2]
    669c:	b834795b 	str	w27, [x10, x20, lsl #2]
    66a0:	b834793a 	str	w26, [x9, x20, lsl #2]
    66a4:	b8347906 	str	w6, [x8, x20, lsl #2]
    66a8:	9101c3e6 	add	x6, sp, #0x70
    66ac:	11000a52 	add	w18, w18, #0x2
    66b0:	d37ef5c9 	lsl	x9, x14, #2
    66b4:	11000863 	add	w3, w3, #0x2
    66b8:	1100080a 	add	w10, w0, #0x2
    66bc:	0f000440 	movi	v0.2s, #0x2
    66c0:	b82578d2 	str	w18, [x6, x5, lsl #2]
    66c4:	d00000a0 	adrp	x0, 1c000 <__FRAME_END__+0xfbe8>
    66c8:	b83078c3 	str	w3, [x6, x16, lsl #2]
    66cc:	d00000a8 	adrp	x8, 1c000 <__FRAME_END__+0xfbe8>
    66d0:	b82c78ca 	str	w10, [x6, x12, lsl #2]
    66d4:	d00000a3 	adrp	x3, 1c000 <__FRAME_END__+0xfbe8>
    66d8:	f947d800 	ldr	x0, [x0, #4016]
    66dc:	fc696a61 	ldr	d1, [x19, x9]
    66e0:	b86578d4 	ldr	w20, [x6, x5, lsl #2]
    66e4:	b8277814 	str	w20, [x0, x7, lsl #2]
    66e8:	0ea08421 	add	v1.2s, v1.2s, v0.2s
    66ec:	b87078d2 	ldr	w18, [x6, x16, lsl #2]
    66f0:	f947bd08 	ldr	x8, [x8, #3960]
    66f4:	f9479c63 	ldr	x3, [x3, #3896]
    66f8:	fc2968c1 	str	d1, [x6, x9]
    66fc:	b8717a69 	ldr	w9, [x19, x17, lsl #2]
    6700:	b8277912 	str	w18, [x8, x7, lsl #2]
    6704:	11000929 	add	w9, w9, #0x2
    6708:	b83178c9 	str	w9, [x6, x17, lsl #2]
    670c:	b827786a 	str	w10, [x3, x7, lsl #2]
    6710:	b86e78ce 	ldr	w14, [x6, x14, lsl #2]
    6714:	b86f78ca 	ldr	w10, [x6, x15, lsl #2]
    6718:	b821780e 	str	w14, [x0, x1, lsl #2]
    671c:	b821790a 	str	w10, [x8, x1, lsl #2]
    6720:	b8217869 	str	w9, [x3, x1, lsl #2]
    6724:	34000fc2 	cbz	w2, 691c <setup_+0x7fc>
    6728:	d10018a2 	sub	x2, x5, #0x6
    672c:	d10010af 	sub	x15, x5, #0x4
    6730:	51000c81 	sub	w1, w4, #0x3
    6734:	d10014ae 	sub	x14, x5, #0x5
    6738:	d37ef449 	lsl	x9, x2, #2
    673c:	93407c2a 	sxtw	x10, w1
    6740:	fc696a61 	ldr	d1, [x19, x9]
    6744:	0ea08421 	add	v1.2s, v1.2s, v0.2s
    6748:	fc2968c1 	str	d1, [x6, x9]
    674c:	b86f7a69 	ldr	w9, [x19, x15, lsl #2]
    6750:	11000929 	add	w9, w9, #0x2
    6754:	b82f78c9 	str	w9, [x6, x15, lsl #2]
    6758:	b82a7869 	str	w9, [x3, x10, lsl #2]
    675c:	b86278c9 	ldr	w9, [x6, x2, lsl #2]
    6760:	b86e78c2 	ldr	w2, [x6, x14, lsl #2]
    6764:	b82a7809 	str	w9, [x0, x10, lsl #2]
    6768:	b82a7902 	str	w2, [x8, x10, lsl #2]
    676c:	34000d81 	cbz	w1, 691c <setup_+0x7fc>
    6770:	d10024a2 	sub	x2, x5, #0x9
    6774:	d1001caf 	sub	x15, x5, #0x7
    6778:	51001081 	sub	w1, w4, #0x4
    677c:	d10020ae 	sub	x14, x5, #0x8
    6780:	d37ef449 	lsl	x9, x2, #2
    6784:	93407c2a 	sxtw	x10, w1
    6788:	fc696a61 	ldr	d1, [x19, x9]
    678c:	0ea08421 	add	v1.2s, v1.2s, v0.2s
    6790:	fc2968c1 	str	d1, [x6, x9]
    6794:	b86f7a69 	ldr	w9, [x19, x15, lsl #2]
    6798:	11000929 	add	w9, w9, #0x2
    679c:	b82f78c9 	str	w9, [x6, x15, lsl #2]
    67a0:	b82a7869 	str	w9, [x3, x10, lsl #2]
    67a4:	b86278c9 	ldr	w9, [x6, x2, lsl #2]
    67a8:	b86e78c2 	ldr	w2, [x6, x14, lsl #2]
    67ac:	b82a7809 	str	w9, [x0, x10, lsl #2]
    67b0:	b82a7902 	str	w2, [x8, x10, lsl #2]
    67b4:	34000b41 	cbz	w1, 691c <setup_+0x7fc>
    67b8:	d10030a2 	sub	x2, x5, #0xc
    67bc:	d10028af 	sub	x15, x5, #0xa
    67c0:	51001481 	sub	w1, w4, #0x5
    67c4:	d1002cae 	sub	x14, x5, #0xb
    67c8:	d37ef449 	lsl	x9, x2, #2
    67cc:	93407c2a 	sxtw	x10, w1
    67d0:	fc696a61 	ldr	d1, [x19, x9]
    67d4:	0ea08421 	add	v1.2s, v1.2s, v0.2s
    67d8:	fc2968c1 	str	d1, [x6, x9]
    67dc:	b86f7a69 	ldr	w9, [x19, x15, lsl #2]
    67e0:	11000929 	add	w9, w9, #0x2
    67e4:	b82f78c9 	str	w9, [x6, x15, lsl #2]
    67e8:	b82a7869 	str	w9, [x3, x10, lsl #2]
    67ec:	b86278c9 	ldr	w9, [x6, x2, lsl #2]
    67f0:	b86e78c2 	ldr	w2, [x6, x14, lsl #2]
    67f4:	b82a7809 	str	w9, [x0, x10, lsl #2]
    67f8:	b82a7902 	str	w2, [x8, x10, lsl #2]
    67fc:	34000901 	cbz	w1, 691c <setup_+0x7fc>
    6800:	d1003ca2 	sub	x2, x5, #0xf
    6804:	d10034af 	sub	x15, x5, #0xd
    6808:	51001881 	sub	w1, w4, #0x6
    680c:	d10038ae 	sub	x14, x5, #0xe
    6810:	d37ef449 	lsl	x9, x2, #2
    6814:	93407c2a 	sxtw	x10, w1
    6818:	fc696a61 	ldr	d1, [x19, x9]
    681c:	0ea08421 	add	v1.2s, v1.2s, v0.2s
    6820:	fc2968c1 	str	d1, [x6, x9]
    6824:	b86f7a69 	ldr	w9, [x19, x15, lsl #2]
    6828:	11000929 	add	w9, w9, #0x2
    682c:	b82f78c9 	str	w9, [x6, x15, lsl #2]
    6830:	b82a7869 	str	w9, [x3, x10, lsl #2]
    6834:	b86278c9 	ldr	w9, [x6, x2, lsl #2]
    6838:	b86e78c2 	ldr	w2, [x6, x14, lsl #2]
    683c:	b82a7809 	str	w9, [x0, x10, lsl #2]
    6840:	b82a7902 	str	w2, [x8, x10, lsl #2]
    6844:	340006c1 	cbz	w1, 691c <setup_+0x7fc>
    6848:	d10048a2 	sub	x2, x5, #0x12
    684c:	d10040af 	sub	x15, x5, #0x10
    6850:	51001c81 	sub	w1, w4, #0x7
    6854:	d10044ae 	sub	x14, x5, #0x11
    6858:	d37ef449 	lsl	x9, x2, #2
    685c:	93407c2a 	sxtw	x10, w1
    6860:	fc696a61 	ldr	d1, [x19, x9]
    6864:	0ea08421 	add	v1.2s, v1.2s, v0.2s
    6868:	fc2968c1 	str	d1, [x6, x9]
    686c:	b86f7a69 	ldr	w9, [x19, x15, lsl #2]
    6870:	11000929 	add	w9, w9, #0x2
    6874:	b82f78c9 	str	w9, [x6, x15, lsl #2]
    6878:	b82a7869 	str	w9, [x3, x10, lsl #2]
    687c:	b86278c9 	ldr	w9, [x6, x2, lsl #2]
    6880:	b86e78c2 	ldr	w2, [x6, x14, lsl #2]
    6884:	b82a7809 	str	w9, [x0, x10, lsl #2]
    6888:	b82a7902 	str	w2, [x8, x10, lsl #2]
    688c:	34000481 	cbz	w1, 691c <setup_+0x7fc>
    6890:	d10054a2 	sub	x2, x5, #0x15
    6894:	d1004caf 	sub	x15, x5, #0x13
    6898:	51002081 	sub	w1, w4, #0x8
    689c:	d10050ae 	sub	x14, x5, #0x14
    68a0:	d37ef449 	lsl	x9, x2, #2
    68a4:	93407c2a 	sxtw	x10, w1
    68a8:	fc696a61 	ldr	d1, [x19, x9]
    68ac:	0ea08421 	add	v1.2s, v1.2s, v0.2s
    68b0:	fc2968c1 	str	d1, [x6, x9]
    68b4:	b86f7a69 	ldr	w9, [x19, x15, lsl #2]
    68b8:	11000929 	add	w9, w9, #0x2
    68bc:	b82f78c9 	str	w9, [x6, x15, lsl #2]
    68c0:	b82a7869 	str	w9, [x3, x10, lsl #2]
    68c4:	b86278c9 	ldr	w9, [x6, x2, lsl #2]
    68c8:	b86e78c2 	ldr	w2, [x6, x14, lsl #2]
    68cc:	b82a7809 	str	w9, [x0, x10, lsl #2]
    68d0:	b82a7902 	str	w2, [x8, x10, lsl #2]
    68d4:	34000241 	cbz	w1, 691c <setup_+0x7fc>
    68d8:	d10060a2 	sub	x2, x5, #0x18
    68dc:	d10058ae 	sub	x14, x5, #0x16
    68e0:	51002481 	sub	w1, w4, #0x9
    68e4:	d1005caa 	sub	x10, x5, #0x17
    68e8:	d37ef449 	lsl	x9, x2, #2
    68ec:	93407c21 	sxtw	x1, w1
    68f0:	fc696a61 	ldr	d1, [x19, x9]
    68f4:	0ea08420 	add	v0.2s, v1.2s, v0.2s
    68f8:	fc2968c0 	str	d0, [x6, x9]
    68fc:	b86e7a69 	ldr	w9, [x19, x14, lsl #2]
    6900:	11000929 	add	w9, w9, #0x2
    6904:	b82e78c9 	str	w9, [x6, x14, lsl #2]
    6908:	b8217869 	str	w9, [x3, x1, lsl #2]
    690c:	b86278c3 	ldr	w3, [x6, x2, lsl #2]
    6910:	b86a78c2 	ldr	w2, [x6, x10, lsl #2]
    6914:	b8217803 	str	w3, [x0, x1, lsl #2]
    6918:	b8217902 	str	w2, [x8, x1, lsl #2]
    691c:	d00000a3 	adrp	x3, 1c000 <__FRAME_END__+0xfbe8>
    6920:	d00000bb 	adrp	x27, 1c000 <__FRAME_END__+0xfbe8>
    6924:	b8657a60 	ldr	w0, [x19, x5, lsl #2]
    6928:	d00000a2 	adrp	x2, 1c000 <__FRAME_END__+0xfbe8>
    692c:	f947f068 	ldr	x8, [x3, #4064]
    6930:	d00000ba 	adrp	x26, 1c000 <__FRAME_END__+0xfbe8>
    6934:	f947a766 	ldr	x6, [x27, #3912]
    6938:	d00000af 	adrp	x15, 1c000 <__FRAME_END__+0xfbe8>
    693c:	b8707a61 	ldr	w1, [x19, x16, lsl #2]
    6940:	d00000ae 	adrp	x14, 1c000 <__FRAME_END__+0xfbe8>
    6944:	f947a045 	ldr	x5, [x2, #3904]
    6948:	d00000aa 	adrp	x10, 1c000 <__FRAME_END__+0xfbe8>
    694c:	11000802 	add	w2, w0, #0x2
    6950:	b90002c2 	str	w2, [x22]
    6954:	11000422 	add	w2, w1, #0x1
    6958:	11000821 	add	w1, w1, #0x2
    695c:	11000409 	add	w9, w0, #0x1
    6960:	b90000c2 	str	w2, [x6]
    6964:	f947d1e6 	ldr	x6, [x15, #4000]
    6968:	b9000109 	str	w9, [x8]
    696c:	f9478d42 	ldr	x2, [x10, #3864]
    6970:	b90002e1 	str	w1, [x23]
    6974:	f947c348 	ldr	x8, [x26, #3968]
    6978:	b90002a4 	str	w4, [x21]
    697c:	f947e9c1 	ldr	x1, [x14, #4048]
    6980:	b86c7a60 	ldr	w0, [x19, x12, lsl #2]
    6984:	11000409 	add	w9, w0, #0x1
    6988:	11000800 	add	w0, w0, #0x2
    698c:	b9000109 	str	w9, [x8]
    6990:	b9000320 	str	w0, [x25]
    6994:	52800040 	mov	w0, #0x2                   	// #2
    6998:	b9000020 	str	w0, [x1]
    699c:	52800021 	mov	w1, #0x1                   	// #1
    69a0:	b9000040 	str	w0, [x2]
    69a4:	b82778a1 	str	w1, [x5, x7, lsl #2]
    69a8:	b90000c0 	str	w0, [x6]
    69ac:	710001bf 	cmp	w13, #0x0
    69b0:	54000c0d 	b.le	6b30 <setup_+0xa10>
    69b4:	d00000a9 	adrp	x9, 1c000 <__FRAME_END__+0xfbe8>
    69b8:	d00000a8 	adrp	x8, 1c000 <__FRAME_END__+0xfbe8>
    69bc:	d00000a6 	adrp	x6, 1c000 <__FRAME_END__+0xfbe8>
    69c0:	8b24c8a1 	add	x1, x5, w4, sxtw #2
    69c4:	f947d929 	ldr	x9, [x9, #4016]
    69c8:	d100096b 	sub	x11, x11, #0x2
    69cc:	f947bd08 	ldr	x8, [x8, #3960]
    69d0:	b8677920 	ldr	w0, [x9, x7, lsl #2]
    69d4:	f9479cc6 	ldr	x6, [x6, #3896]
    69d8:	b867790c 	ldr	w12, [x8, x7, lsl #2]
    69dc:	b85fc022 	ldur	w2, [x1, #-4]
    69e0:	71000881 	subs	w1, w4, #0x2
    69e4:	b86778c7 	ldr	w7, [x6, x7, lsl #2]
    69e8:	1b0c7c00 	mul	w0, w0, w12
    69ec:	1b070800 	madd	w0, w0, w7, w2
    69f0:	b82b78a0 	str	w0, [x5, x11, lsl #2]
    69f4:	540009e0 	b.eq	6b30 <setup_+0xa10>  // b.none
    69f8:	93407c21 	sxtw	x1, w1
    69fc:	71000c87 	subs	w7, w4, #0x3
    6a00:	d100042b 	sub	x11, x1, #0x1
    6a04:	b8617922 	ldr	w2, [x9, x1, lsl #2]
    6a08:	b861790d 	ldr	w13, [x8, x1, lsl #2]
    6a0c:	b86178cc 	ldr	w12, [x6, x1, lsl #2]
    6a10:	1b0d7c41 	mul	w1, w2, w13
    6a14:	1b0c0020 	madd	w0, w1, w12, w0
    6a18:	b82b78a0 	str	w0, [x5, x11, lsl #2]
    6a1c:	540008a0 	b.eq	6b30 <setup_+0xa10>  // b.none
    6a20:	93407ce1 	sxtw	x1, w7
    6a24:	71001087 	subs	w7, w4, #0x4
    6a28:	d100042b 	sub	x11, x1, #0x1
    6a2c:	b8617902 	ldr	w2, [x8, x1, lsl #2]
    6a30:	b861792d 	ldr	w13, [x9, x1, lsl #2]
    6a34:	b86178cc 	ldr	w12, [x6, x1, lsl #2]
    6a38:	1b0d7c41 	mul	w1, w2, w13
    6a3c:	1b0c0020 	madd	w0, w1, w12, w0
    6a40:	b82b78a0 	str	w0, [x5, x11, lsl #2]
    6a44:	54000760 	b.eq	6b30 <setup_+0xa10>  // b.none
    6a48:	93407ce1 	sxtw	x1, w7
    6a4c:	71001487 	subs	w7, w4, #0x5
    6a50:	d100042b 	sub	x11, x1, #0x1
    6a54:	b8617902 	ldr	w2, [x8, x1, lsl #2]
    6a58:	b861792d 	ldr	w13, [x9, x1, lsl #2]
    6a5c:	b86178cc 	ldr	w12, [x6, x1, lsl #2]
    6a60:	1b0d7c41 	mul	w1, w2, w13
    6a64:	1b0c0020 	madd	w0, w1, w12, w0
    6a68:	b82b78a0 	str	w0, [x5, x11, lsl #2]
    6a6c:	54000620 	b.eq	6b30 <setup_+0xa10>  // b.none
    6a70:	93407ce1 	sxtw	x1, w7
    6a74:	71001887 	subs	w7, w4, #0x6
    6a78:	d100042b 	sub	x11, x1, #0x1
    6a7c:	b8617902 	ldr	w2, [x8, x1, lsl #2]
    6a80:	b861792d 	ldr	w13, [x9, x1, lsl #2]
    6a84:	b86178cc 	ldr	w12, [x6, x1, lsl #2]
    6a88:	1b0d7c41 	mul	w1, w2, w13
    6a8c:	1b0c0020 	madd	w0, w1, w12, w0
    6a90:	b82b78a0 	str	w0, [x5, x11, lsl #2]
    6a94:	540004e0 	b.eq	6b30 <setup_+0xa10>  // b.none
    6a98:	93407ce1 	sxtw	x1, w7
    6a9c:	71001c87 	subs	w7, w4, #0x7
    6aa0:	d100042b 	sub	x11, x1, #0x1
    6aa4:	b8617922 	ldr	w2, [x9, x1, lsl #2]
    6aa8:	b861790d 	ldr	w13, [x8, x1, lsl #2]
    6aac:	b86178cc 	ldr	w12, [x6, x1, lsl #2]
    6ab0:	1b0d7c41 	mul	w1, w2, w13
    6ab4:	1b0c0020 	madd	w0, w1, w12, w0
    6ab8:	b82b78a0 	str	w0, [x5, x11, lsl #2]
    6abc:	540003a0 	b.eq	6b30 <setup_+0xa10>  // b.none
    6ac0:	93407ce1 	sxtw	x1, w7
    6ac4:	71002087 	subs	w7, w4, #0x8
    6ac8:	d100042b 	sub	x11, x1, #0x1
    6acc:	b8617922 	ldr	w2, [x9, x1, lsl #2]
    6ad0:	b861790d 	ldr	w13, [x8, x1, lsl #2]
    6ad4:	b86178cc 	ldr	w12, [x6, x1, lsl #2]
    6ad8:	1b0d7c41 	mul	w1, w2, w13
    6adc:	1b0c0020 	madd	w0, w1, w12, w0
    6ae0:	b82b78a0 	str	w0, [x5, x11, lsl #2]
    6ae4:	54000260 	b.eq	6b30 <setup_+0xa10>  // b.none
    6ae8:	93407ce1 	sxtw	x1, w7
    6aec:	71002487 	subs	w7, w4, #0x9
    6af0:	d100042b 	sub	x11, x1, #0x1
    6af4:	b8617922 	ldr	w2, [x9, x1, lsl #2]
    6af8:	b861790d 	ldr	w13, [x8, x1, lsl #2]
    6afc:	b86178cc 	ldr	w12, [x6, x1, lsl #2]
    6b00:	1b0d7c41 	mul	w1, w2, w13
    6b04:	1b0c0020 	madd	w0, w1, w12, w0
    6b08:	b82b78a0 	str	w0, [x5, x11, lsl #2]
    6b0c:	54000120 	b.eq	6b30 <setup_+0xa10>  // b.none
    6b10:	93407ce1 	sxtw	x1, w7
    6b14:	d1000427 	sub	x7, x1, #0x1
    6b18:	b8617922 	ldr	w2, [x9, x1, lsl #2]
    6b1c:	b8617908 	ldr	w8, [x8, x1, lsl #2]
    6b20:	b86178c6 	ldr	w6, [x6, x1, lsl #2]
    6b24:	1b087c41 	mul	w1, w2, w8
    6b28:	1b060020 	madd	w0, w1, w6, w0
    6b2c:	b82778a0 	str	w0, [x5, x7, lsl #2]
    6b30:	d00000a0 	adrp	x0, 1c000 <__FRAME_END__+0xfbe8>
    6b34:	f9479000 	ldr	x0, [x0, #3872]
    6b38:	b9400400 	ldr	w0, [x0, #4]
    6b3c:	7100001f 	cmp	w0, #0x0
    6b40:	54000fcd 	b.le	6d38 <setup_+0xc18>
    6b44:	90000020 	adrp	x0, a000 <print_results_+0x3f0>
    6b48:	fd0033e8 	str	d8, [sp, #96]
    6b4c:	90000024 	adrp	x4, a000 <print_results_+0x3f0>
    6b50:	528035a1 	mov	w1, #0x1ad                 	// #429
    6b54:	fd47d008 	ldr	d8, [x0, #4000]
    6b58:	910543f4 	add	x20, sp, #0x150
    6b5c:	9127a09c 	add	x28, x4, #0x9e8
    6b60:	aa1403e0 	mov	x0, x20
    6b64:	f900affc 	str	x28, [sp, #344]
    6b68:	fd00abe8 	str	d8, [sp, #336]
    6b6c:	b90163e1 	str	w1, [sp, #352]
    6b70:	97ffeb38 	bl	1850 <_gfortran_st_write@plt>
    6b74:	90000021 	adrp	x1, a000 <print_results_+0x3f0>
    6b78:	9127c021 	add	x1, x1, #0x9f0
    6b7c:	d2800162 	mov	x2, #0xb                   	// #11
    6b80:	aa1403e0 	mov	x0, x20
    6b84:	97ffeac7 	bl	16a0 <_gfortran_transfer_character_write@plt>
    6b88:	aa1403e0 	mov	x0, x20
    6b8c:	97ffeb05 	bl	17a0 <_gfortran_st_write_done@plt>
    6b90:	528035e1 	mov	w1, #0x1af                 	// #431
    6b94:	aa1403e0 	mov	x0, x20
    6b98:	fd00abe8 	str	d8, [sp, #336]
    6b9c:	f900affc 	str	x28, [sp, #344]
    6ba0:	b90163e1 	str	w1, [sp, #352]
    6ba4:	97ffeb2b 	bl	1850 <_gfortran_st_write@plt>
    6ba8:	aa1403e0 	mov	x0, x20
    6bac:	d2800262 	mov	x2, #0x13                  	// #19
    6bb0:	90000021 	adrp	x1, a000 <print_results_+0x3f0>
    6bb4:	91280021 	add	x1, x1, #0xa00
    6bb8:	97ffeaba 	bl	16a0 <_gfortran_transfer_character_write@plt>
    6bbc:	90000021 	adrp	x1, a000 <print_results_+0x3f0>
    6bc0:	91286021 	add	x1, x1, #0xa18
    6bc4:	d2800462 	mov	x2, #0x23                  	// #35
    6bc8:	aa1403e0 	mov	x0, x20
    6bcc:	97ffeab5 	bl	16a0 <_gfortran_transfer_character_write@plt>
    6bd0:	aa1403e0 	mov	x0, x20
    6bd4:	97ffeaf3 	bl	17a0 <_gfortran_st_write_done@plt>
    6bd8:	90000020 	adrp	x0, a000 <print_results_+0x3f0>
    6bdc:	90000021 	adrp	x1, a000 <print_results_+0x3f0>
    6be0:	91290021 	add	x1, x1, #0xa40
    6be4:	52803625 	mov	w5, #0x1b1                 	// #433
    6be8:	fd47d400 	ldr	d0, [x0, #4008]
    6bec:	d28000c2 	mov	x2, #0x6                   	// #6
    6bf0:	aa1403e0 	mov	x0, x20
    6bf4:	f900affc 	str	x28, [sp, #344]
    6bf8:	b90163e5 	str	w5, [sp, #352]
    6bfc:	fd00abe0 	str	d0, [sp, #336]
    6c00:	a91a0be1 	stp	x1, x2, [sp, #416]
    6c04:	97ffeb13 	bl	1850 <_gfortran_st_write@plt>
    6c08:	aa1403e0 	mov	x0, x20
    6c0c:	aa1503e1 	mov	x1, x21
    6c10:	52800082 	mov	w2, #0x4                   	// #4
    6c14:	97ffea8b 	bl	1640 <_gfortran_transfer_integer_write@plt>
    6c18:	f947e318 	ldr	x24, [x24, #4032]
    6c1c:	aa1403e0 	mov	x0, x20
    6c20:	52800082 	mov	w2, #0x4                   	// #4
    6c24:	aa1803e1 	mov	x1, x24
    6c28:	97ffea86 	bl	1640 <_gfortran_transfer_integer_write@plt>
    6c2c:	b98002a1 	ldrsw	x1, [x21]
    6c30:	aa1403e0 	mov	x0, x20
    6c34:	52800082 	mov	w2, #0x4                   	// #4
    6c38:	d1000421 	sub	x1, x1, #0x1
    6c3c:	8b010421 	add	x1, x1, x1, lsl #1
    6c40:	8b010a61 	add	x1, x19, x1, lsl #2
    6c44:	97ffea7f 	bl	1640 <_gfortran_transfer_integer_write@plt>
    6c48:	b94002a1 	ldr	w1, [x21]
    6c4c:	92800024 	mov	x4, #0xfffffffffffffffe    	// #-2
    6c50:	52800063 	mov	w3, #0x3                   	// #3
    6c54:	aa1403e0 	mov	x0, x20
    6c58:	52800082 	mov	w2, #0x4                   	// #4
    6c5c:	9b231021 	smaddl	x1, w1, w3, x4
    6c60:	8b010a61 	add	x1, x19, x1, lsl #2
    6c64:	97ffea77 	bl	1640 <_gfortran_transfer_integer_write@plt>
    6c68:	b94002a1 	ldr	w1, [x21]
    6c6c:	92800004 	mov	x4, #0xffffffffffffffff    	// #-1
    6c70:	52800063 	mov	w3, #0x3                   	// #3
    6c74:	aa1403e0 	mov	x0, x20
    6c78:	52800082 	mov	w2, #0x4                   	// #4
    6c7c:	9b231021 	smaddl	x1, w1, w3, x4
    6c80:	8b010a61 	add	x1, x19, x1, lsl #2
    6c84:	97ffea6f 	bl	1640 <_gfortran_transfer_integer_write@plt>
    6c88:	aa1603e1 	mov	x1, x22
    6c8c:	aa1403e0 	mov	x0, x20
    6c90:	52800082 	mov	w2, #0x4                   	// #4
    6c94:	97ffea6b 	bl	1640 <_gfortran_transfer_integer_write@plt>
    6c98:	aa1703e1 	mov	x1, x23
    6c9c:	aa1403e0 	mov	x0, x20
    6ca0:	52800082 	mov	w2, #0x4                   	// #4
    6ca4:	97ffea67 	bl	1640 <_gfortran_transfer_integer_write@plt>
    6ca8:	aa1903e1 	mov	x1, x25
    6cac:	aa1403e0 	mov	x0, x20
    6cb0:	52800082 	mov	w2, #0x4                   	// #4
    6cb4:	97ffea63 	bl	1640 <_gfortran_transfer_integer_write@plt>
    6cb8:	d00000af 	adrp	x15, 1c000 <__FRAME_END__+0xfbe8>
    6cbc:	aa1403e0 	mov	x0, x20
    6cc0:	52800082 	mov	w2, #0x4                   	// #4
    6cc4:	f947d1e1 	ldr	x1, [x15, #4000]
    6cc8:	97ffea5e 	bl	1640 <_gfortran_transfer_integer_write@plt>
    6ccc:	d00000ae 	adrp	x14, 1c000 <__FRAME_END__+0xfbe8>
    6cd0:	aa1403e0 	mov	x0, x20
    6cd4:	52800082 	mov	w2, #0x4                   	// #4
    6cd8:	f947e9c1 	ldr	x1, [x14, #4048]
    6cdc:	97ffea59 	bl	1640 <_gfortran_transfer_integer_write@plt>
    6ce0:	d00000aa 	adrp	x10, 1c000 <__FRAME_END__+0xfbe8>
    6ce4:	aa1403e0 	mov	x0, x20
    6ce8:	52800082 	mov	w2, #0x4                   	// #4
    6cec:	f9478d41 	ldr	x1, [x10, #3864]
    6cf0:	97ffea54 	bl	1640 <_gfortran_transfer_integer_write@plt>
    6cf4:	d00000a3 	adrp	x3, 1c000 <__FRAME_END__+0xfbe8>
    6cf8:	aa1403e0 	mov	x0, x20
    6cfc:	52800082 	mov	w2, #0x4                   	// #4
    6d00:	f947f061 	ldr	x1, [x3, #4064]
    6d04:	97ffea4f 	bl	1640 <_gfortran_transfer_integer_write@plt>
    6d08:	f947a761 	ldr	x1, [x27, #3912]
    6d0c:	aa1403e0 	mov	x0, x20
    6d10:	52800082 	mov	w2, #0x4                   	// #4
    6d14:	97ffea4b 	bl	1640 <_gfortran_transfer_integer_write@plt>
    6d18:	f947c341 	ldr	x1, [x26, #3968]
    6d1c:	52800082 	mov	w2, #0x4                   	// #4
    6d20:	aa1403e0 	mov	x0, x20
    6d24:	97ffea47 	bl	1640 <_gfortran_transfer_integer_write@plt>
    6d28:	aa1403e0 	mov	x0, x20
    6d2c:	97ffea9d 	bl	17a0 <_gfortran_st_write_done@plt>
    6d30:	b9400304 	ldr	w4, [x24]
    6d34:	fd4033e8 	ldr	d8, [sp, #96]
    6d38:	a9407bfd 	ldp	x29, x30, [sp]
    6d3c:	a94153f3 	ldp	x19, x20, [sp, #16]
    6d40:	a94363f7 	ldp	x23, x24, [sp, #48]
    6d44:	a9446bf9 	ldp	x25, x26, [sp, #64]
    6d48:	a94573fb 	ldp	x27, x28, [sp, #80]
    6d4c:	b90002a4 	str	w4, [x21]
    6d50:	a9425bf5 	ldp	x21, x22, [sp, #32]
    6d54:	910d83ff 	add	sp, sp, #0x360
    6d58:	d65f03c0 	ret
    6d5c:	b9000064 	str	w4, [x3]
    6d60:	7100009f 	cmp	w4, #0x0
    6d64:	54ffddcd 	b.le	691c <setup_+0x7fc>
    6d68:	9101c3e1 	add	x1, sp, #0x70
    6d6c:	b8657a62 	ldr	w2, [x19, x5, lsl #2]
    6d70:	d00000a9 	adrp	x9, 1c000 <__FRAME_END__+0xfbe8>
    6d74:	b8707a6a 	ldr	w10, [x19, x16, lsl #2]
    6d78:	d00000a3 	adrp	x3, 1c000 <__FRAME_END__+0xfbe8>
    6d7c:	d00000a8 	adrp	x8, 1c000 <__FRAME_END__+0xfbe8>
    6d80:	f9479d29 	ldr	x9, [x9, #3896]
    6d84:	b82779c2 	str	w2, [x14, x7, lsl #2]
    6d88:	11000842 	add	w2, w2, #0x2
    6d8c:	b8257822 	str	w2, [x1, x5, lsl #2]
    6d90:	f947d908 	ldr	x8, [x8, #4016]
    6d94:	11000800 	add	w0, w0, #0x2
    6d98:	f947bc62 	ldr	x2, [x3, #3960]
    6d9c:	11000943 	add	w3, w10, #0x2
    6da0:	b8307823 	str	w3, [x1, x16, lsl #2]
    6da4:	b82c7820 	str	w0, [x1, x12, lsl #2]
    6da8:	b8277920 	str	w0, [x9, x7, lsl #2]
    6dac:	b8657823 	ldr	w3, [x1, x5, lsl #2]
    6db0:	b8707820 	ldr	w0, [x1, x16, lsl #2]
    6db4:	b82778ca 	str	w10, [x6, x7, lsl #2]
    6db8:	b8277903 	str	w3, [x8, x7, lsl #2]
    6dbc:	b8277840 	str	w0, [x2, x7, lsl #2]
    6dc0:	17fffed7 	b	691c <setup_+0x7fc>

0000000000006dc4 <showall_>:
    6dc4:	d10c03ff 	sub	sp, sp, #0x300
    6dc8:	90000026 	adrp	x6, a000 <print_results_+0x3f0>
    6dcc:	52800244 	mov	w4, #0x12                  	// #18
    6dd0:	528001c5 	mov	w5, #0xe                   	// #14
    6dd4:	a9007bfd 	stp	x29, x30, [sp]
    6dd8:	910003fd 	mov	x29, sp
    6ddc:	fd47d0c0 	ldr	d0, [x6, #4000]
    6de0:	b9400026 	ldr	w6, [x1]
    6de4:	b9400041 	ldr	w1, [x2]
    6de8:	5280a0e2 	mov	w2, #0x507                 	// #1287
    6dec:	a90363f7 	stp	x23, x24, [sp, #48]
    6df0:	93407cd8 	sxtw	x24, w6
    6df4:	f100031f 	cmp	x24, #0x0
    6df8:	a90153f3 	stp	x19, x20, [sp, #16]
    6dfc:	9a9fa318 	csel	x24, x24, xzr, ge  // ge = tcont
    6e00:	b9400073 	ldr	w19, [x3]
    6e04:	93407c23 	sxtw	x3, w1
    6e08:	b90103e2 	str	w2, [sp, #256]
    6e0c:	a90573fb 	stp	x27, x28, [sp, #80]
    6e10:	9103c3fc 	add	x28, sp, #0xf0
    6e14:	9b187c63 	mul	x3, x3, x24
    6e18:	a9046bf9 	stp	x25, x26, [sp, #64]
    6e1c:	f100007f 	cmp	x3, #0x0
    6e20:	aa0303e2 	mov	x2, x3
    6e24:	52800023 	mov	w3, #0x1                   	// #1
    6e28:	9a9fa042 	csel	x2, x2, xzr, ge  // ge = tcont
    6e2c:	6b0400df 	cmp	w6, w4
    6e30:	1a84d0db 	csel	w27, w6, w4, le
    6e34:	6b05003f 	cmp	w1, w5
    6e38:	1a85d039 	csel	w25, w1, w5, le
    6e3c:	6b04027f 	cmp	w19, w4
    6e40:	1a84d261 	csel	w1, w19, w4, le
    6e44:	f90057e0 	str	x0, [sp, #168]
    6e48:	90000020 	adrp	x0, a000 <print_results_+0x3f0>
    6e4c:	a9025bf5 	stp	x21, x22, [sp, #32]
    6e50:	9127a015 	add	x21, x0, #0x9e8
    6e54:	aa1c03e0 	mov	x0, x28
    6e58:	f90047ff 	str	xzr, [sp, #136]
    6e5c:	b90097e3 	str	w3, [sp, #148]
    6e60:	f9004fe2 	str	x2, [sp, #152]
    6e64:	b900a3e6 	str	w6, [sp, #160]
    6e68:	b900a7e1 	str	w1, [sp, #164]
    6e6c:	fd007be0 	str	d0, [sp, #240]
    6e70:	f9007ff5 	str	x21, [sp, #248]
    6e74:	97ffea77 	bl	1850 <_gfortran_st_write@plt>
    6e78:	90000020 	adrp	x0, a000 <print_results_+0x3f0>
    6e7c:	91292001 	add	x1, x0, #0xa48
    6e80:	d2800042 	mov	x2, #0x2                   	// #2
    6e84:	aa1c03e0 	mov	x0, x28
    6e88:	97ffea06 	bl	16a0 <_gfortran_transfer_character_write@plt>
    6e8c:	aa1c03e0 	mov	x0, x28
    6e90:	97ffea44 	bl	17a0 <_gfortran_st_write_done@plt>
    6e94:	7100027f 	cmp	w19, #0x0
    6e98:	5400090d 	b.le	6fb8 <showall_+0x1f4>
    6e9c:	93407f20 	sxtw	x0, w25
    6ea0:	9000003a 	adrp	x26, a000 <print_results_+0x3f0>
    6ea4:	9129835a 	add	x26, x26, #0xa60
    6ea8:	f90043e0 	str	x0, [sp, #128]
    6eac:	cb1803e0 	neg	x0, x24
    6eb0:	f9003fe0 	str	x0, [sp, #120]
    6eb4:	fd0033e8 	str	d8, [sp, #96]
    6eb8:	b940a3e0 	ldr	w0, [sp, #160]
    6ebc:	7100001f 	cmp	w0, #0x0
    6ec0:	5400048d 	b.le	6f50 <showall_+0x18c>
    6ec4:	f94047e0 	ldr	x0, [sp, #136]
    6ec8:	9102c3f7 	add	x23, sp, #0xb0
    6ecc:	f94057e1 	ldr	x1, [sp, #168]
    6ed0:	52800039 	mov	w25, #0x1                   	// #1
    6ed4:	5280a156 	mov	w22, #0x50a                 	// #1290
    6ed8:	d2800113 	mov	x19, #0x8                   	// #8
    6edc:	8b000c34 	add	x20, x1, x0, lsl #3
    6ee0:	90000020 	adrp	x0, a000 <print_results_+0x3f0>
    6ee4:	fd47d408 	ldr	d8, [x0, #4008]
    6ee8:	aa1c03e0 	mov	x0, x28
    6eec:	fd007be8 	str	d8, [sp, #240]
    6ef0:	f9007ff5 	str	x21, [sp, #248]
    6ef4:	11000739 	add	w25, w25, #0x1
    6ef8:	b90103f6 	str	w22, [sp, #256]
    6efc:	a9144ffa 	stp	x26, x19, [sp, #320]
    6f00:	97ffea54 	bl	1850 <_gfortran_st_write@plt>
    6f04:	d2c06026 	mov	x6, #0x30100000000         	// #3302829850624
    6f08:	f9403fe4 	ldr	x4, [sp, #120]
    6f0c:	a90b13f4 	stp	x20, x4, [sp, #176]
    6f10:	d2800025 	mov	x5, #0x1                   	// #1
    6f14:	f94043e4 	ldr	x4, [sp, #128]
    6f18:	aa1703e1 	mov	x1, x23
    6f1c:	d2800003 	mov	x3, #0x0                   	// #0
    6f20:	52800102 	mov	w2, #0x8                   	// #8
    6f24:	aa1c03e0 	mov	x0, x28
    6f28:	a90c1bf3 	stp	x19, x6, [sp, #192]
    6f2c:	91002294 	add	x20, x20, #0x8
    6f30:	a90d63f3 	stp	x19, x24, [sp, #208]
    6f34:	f90073e5 	str	x5, [sp, #224]
    6f38:	f90077e4 	str	x4, [sp, #232]
    6f3c:	97ffea1d 	bl	17b0 <_gfortran_transfer_array_write@plt>
    6f40:	aa1c03e0 	mov	x0, x28
    6f44:	97ffea17 	bl	17a0 <_gfortran_st_write_done@plt>
    6f48:	6b19037f 	cmp	w27, w25
    6f4c:	54fffcea 	b.ge	6ee8 <showall_+0x124>  // b.tcont
    6f50:	90000020 	adrp	x0, a000 <print_results_+0x3f0>
    6f54:	5280a181 	mov	w1, #0x50c                 	// #1292
    6f58:	b90103e1 	str	w1, [sp, #256]
    6f5c:	b94097e1 	ldr	w1, [sp, #148]
    6f60:	fd47d000 	ldr	d0, [x0, #4000]
    6f64:	aa1c03e0 	mov	x0, x28
    6f68:	11000433 	add	w19, w1, #0x1
    6f6c:	b90097f3 	str	w19, [sp, #148]
    6f70:	f9007ff5 	str	x21, [sp, #248]
    6f74:	fd007be0 	str	d0, [sp, #240]
    6f78:	97ffea36 	bl	1850 <_gfortran_st_write@plt>
    6f7c:	90000020 	adrp	x0, a000 <print_results_+0x3f0>
    6f80:	d28001e2 	mov	x2, #0xf                   	// #15
    6f84:	91294001 	add	x1, x0, #0xa50
    6f88:	aa1c03e0 	mov	x0, x28
    6f8c:	97ffe9c5 	bl	16a0 <_gfortran_transfer_character_write@plt>
    6f90:	f94047e1 	ldr	x1, [sp, #136]
    6f94:	aa1c03e0 	mov	x0, x28
    6f98:	f9404fe2 	ldr	x2, [sp, #152]
    6f9c:	8b020021 	add	x1, x1, x2
    6fa0:	f90047e1 	str	x1, [sp, #136]
    6fa4:	97ffe9ff 	bl	17a0 <_gfortran_st_write_done@plt>
    6fa8:	b940a7e0 	ldr	w0, [sp, #164]
    6fac:	6b13001f 	cmp	w0, w19
    6fb0:	54fff84a 	b.ge	6eb8 <showall_+0xf4>  // b.tcont
    6fb4:	fd4033e8 	ldr	d8, [sp, #96]
    6fb8:	90000020 	adrp	x0, a000 <print_results_+0x3f0>
    6fbc:	5280a1c1 	mov	w1, #0x50e                 	// #1294
    6fc0:	b90103e1 	str	w1, [sp, #256]
    6fc4:	fd47d000 	ldr	d0, [x0, #4000]
    6fc8:	90000020 	adrp	x0, a000 <print_results_+0x3f0>
    6fcc:	9127a002 	add	x2, x0, #0x9e8
    6fd0:	aa1c03e0 	mov	x0, x28
    6fd4:	f9007fe2 	str	x2, [sp, #248]
    6fd8:	fd007be0 	str	d0, [sp, #240]
    6fdc:	97ffea1d 	bl	1850 <_gfortran_st_write@plt>
    6fe0:	90000020 	adrp	x0, a000 <print_results_+0x3f0>
    6fe4:	91292001 	add	x1, x0, #0xa48
    6fe8:	d2800042 	mov	x2, #0x2                   	// #2
    6fec:	aa1c03e0 	mov	x0, x28
    6ff0:	97ffe9ac 	bl	16a0 <_gfortran_transfer_character_write@plt>
    6ff4:	aa1c03e0 	mov	x0, x28
    6ff8:	97ffe9ea 	bl	17a0 <_gfortran_st_write_done@plt>
    6ffc:	a9407bfd 	ldp	x29, x30, [sp]
    7000:	a94153f3 	ldp	x19, x20, [sp, #16]
    7004:	a9425bf5 	ldp	x21, x22, [sp, #32]
    7008:	a94363f7 	ldp	x23, x24, [sp, #48]
    700c:	a9446bf9 	ldp	x25, x26, [sp, #64]
    7010:	a94573fb 	ldp	x27, x28, [sp, #80]
    7014:	910c03ff 	add	sp, sp, #0x300
    7018:	d65f03c0 	ret
    701c:	d503201f 	nop

0000000000007020 <rep_nrm_>:
    7020:	d109c3ff 	sub	sp, sp, #0x270
    7024:	b00000a8 	adrp	x8, 1c000 <__FRAME_END__+0xfbe8>
    7028:	b00000a7 	adrp	x7, 1c000 <__FRAME_END__+0xfbe8>
    702c:	a9017bfd 	stp	x29, x30, [sp, #16]
    7030:	910043fd 	add	x29, sp, #0x10
    7034:	f947d508 	ldr	x8, [x8, #4008]
    7038:	a9035bf5 	stp	x21, x22, [sp, #48]
    703c:	aa0503f6 	mov	x22, x5
    7040:	b00000a5 	adrp	x5, 1c000 <__FRAME_END__+0xfbe8>
    7044:	910143f5 	add	x21, sp, #0x50
    7048:	f947ece7 	ldr	x7, [x7, #4056]
    704c:	a90253f3 	stp	x19, x20, [sp, #32]
    7050:	b98002c6 	ldrsw	x6, [x22]
    7054:	f94794a5 	ldr	x5, [x5, #3880]
    7058:	d10004c6 	sub	x6, x6, #0x1
    705c:	910163f4 	add	x20, sp, #0x58
    7060:	f90023f7 	str	x23, [sp, #64]
    7064:	d37ef4c6 	lsl	x6, x6, #2
    7068:	aa0403f7 	mov	x23, x4
    706c:	8b0800c8 	add	x8, x6, x8
    7070:	f90003e8 	str	x8, [sp]
    7074:	8b0600e7 	add	x7, x7, x6
    7078:	aa1503e4 	mov	x4, x21
    707c:	8b0600a6 	add	x6, x5, x6
    7080:	aa1403e5 	mov	x5, x20
    7084:	97fff9fb 	bl	5870 <norm2u3_>
    7088:	910183f3 	add	x19, sp, #0x60
    708c:	f0000000 	adrp	x0, a000 <print_results_+0x3f0>
    7090:	f0000002 	adrp	x2, a000 <print_results_+0x3f0>
    7094:	f0000001 	adrp	x1, a000 <print_results_+0x3f0>
    7098:	9127a042 	add	x2, x2, #0x9e8
    709c:	fd47d400 	ldr	d0, [x0, #4008]
    70a0:	9129c021 	add	x1, x1, #0xa70
    70a4:	52807c64 	mov	w4, #0x3e3                 	// #995
    70a8:	d2800623 	mov	x3, #0x31                  	// #49
    70ac:	aa1303e0 	mov	x0, x19
    70b0:	f90037e2 	str	x2, [sp, #104]
    70b4:	fd0033e0 	str	d0, [sp, #96]
    70b8:	b90073e4 	str	w4, [sp, #112]
    70bc:	a90b0fe1 	stp	x1, x3, [sp, #176]
    70c0:	97ffe9e4 	bl	1850 <_gfortran_st_write@plt>
    70c4:	aa1603e1 	mov	x1, x22
    70c8:	aa1303e0 	mov	x0, x19
    70cc:	52800082 	mov	w2, #0x4                   	// #4
    70d0:	97ffe95c 	bl	1640 <_gfortran_transfer_integer_write@plt>
    70d4:	aa1703e1 	mov	x1, x23
    70d8:	aa1303e0 	mov	x0, x19
    70dc:	d2800102 	mov	x2, #0x8                   	// #8
    70e0:	97ffe970 	bl	16a0 <_gfortran_transfer_character_write@plt>
    70e4:	aa1503e1 	mov	x1, x21
    70e8:	aa1303e0 	mov	x0, x19
    70ec:	52800102 	mov	w2, #0x8                   	// #8
    70f0:	97ffe92c 	bl	15a0 <_gfortran_transfer_real_write@plt>
    70f4:	aa1403e1 	mov	x1, x20
    70f8:	52800102 	mov	w2, #0x8                   	// #8
    70fc:	aa1303e0 	mov	x0, x19
    7100:	97ffe928 	bl	15a0 <_gfortran_transfer_real_write@plt>
    7104:	aa1303e0 	mov	x0, x19
    7108:	97ffe9a6 	bl	17a0 <_gfortran_st_write_done@plt>
    710c:	a9417bfd 	ldp	x29, x30, [sp, #16]
    7110:	a94253f3 	ldp	x19, x20, [sp, #32]
    7114:	a9435bf5 	ldp	x21, x22, [sp, #48]
    7118:	f94023f7 	ldr	x23, [sp, #64]
    711c:	9109c3ff 	add	sp, sp, #0x270
    7120:	d65f03c0 	ret

0000000000007124 <interp_>:
    7124:	a9b07bfd 	stp	x29, x30, [sp, #-256]!
    7128:	b00000aa 	adrp	x10, 1c000 <__FRAME_END__+0xfbe8>
    712c:	910003fd 	mov	x29, sp
    7130:	a9025bf5 	stp	x21, x22, [sp, #32]
    7134:	aa0503f6 	mov	x22, x5
    7138:	b9800035 	ldrsw	x21, [x1]
    713c:	a90153f3 	stp	x19, x20, [sp, #16]
    7140:	f10002bf 	cmp	x21, #0x0
    7144:	b9800053 	ldrsw	x19, [x2]
    7148:	9a9fa2b5 	csel	x21, x21, xzr, ge  // ge = tcont
    714c:	b94000ac 	ldr	w12, [x5]
    7150:	aa3503e5 	mvn	x5, x21
    7154:	b94000cb 	ldr	w11, [x6]
    7158:	a90363f7 	stp	x23, x24, [sp, #48]
    715c:	aa0603f7 	mov	x23, x6
    7160:	9b157e73 	mul	x19, x19, x21
    7164:	93407d86 	sxtw	x6, w12
    7168:	a9046bf9 	stp	x25, x26, [sp, #64]
    716c:	f100027f 	cmp	x19, #0x0
    7170:	9a9fa273 	csel	x19, x19, xzr, ge  // ge = tcont
    7174:	aa0103f9 	mov	x25, x1
    7178:	f10000df 	cmp	x6, #0x0
    717c:	93407d74 	sxtw	x20, w11
    7180:	f9478941 	ldr	x1, [x10, #3856]
    7184:	9a9fa0c6 	csel	x6, x6, xzr, ge  // ge = tcont
    7188:	a90573fb 	stp	x27, x28, [sp, #80]
    718c:	aa0203fa 	mov	x26, x2
    7190:	aa2603e2 	mvn	x2, x6
    7194:	9b067e94 	mul	x20, x20, x6
    7198:	b9400021 	ldr	w1, [x1]
    719c:	a90693e0 	stp	x0, x4, [sp, #104]
    71a0:	aa0303fb 	mov	x27, x3
    71a4:	f100029f 	cmp	x20, #0x0
    71a8:	9a9fa294 	csel	x20, x20, xzr, ge  // ge = tcont
    71ac:	aa0703f8 	mov	x24, x7
    71b0:	cb1300a5 	sub	x5, x5, x19
    71b4:	cb140042 	sub	x2, x2, x20
    71b8:	f94083fc 	ldr	x28, [sp, #256]
    71bc:	35000ea1 	cbnz	w1, 7390 <interp_+0x26c>
    71c0:	b9400300 	ldr	w0, [x24]
    71c4:	71000d9f 	cmp	w12, #0x3
    71c8:	54000d60 	b.eq	7374 <interp_+0x250>  // b.none
    71cc:	71000d7f 	cmp	w11, #0x3
    71d0:	54000840 	b.eq	72d8 <interp_+0x1b4>  // b.none
    71d4:	71000c1f 	cmp	w0, #0x3
    71d8:	54001120 	b.eq	73fc <interp_+0x2d8>  // b.none
    71dc:	b9400344 	ldr	w4, [x26]
    71e0:	910243e1 	add	x1, sp, #0x90
    71e4:	b9400367 	ldr	w7, [x27]
    71e8:	52800003 	mov	w3, #0x0                   	// #0
    71ec:	51000484 	sub	w4, w4, #0x1
    71f0:	f9003fe1 	str	x1, [sp, #120]
    71f4:	510004e7 	sub	w7, w7, #0x1
    71f8:	a90ad3e6 	stp	x6, x20, [sp, #168]
    71fc:	f94037e0 	ldr	x0, [sp, #104]
    7200:	a90967e0 	stp	x0, x25, [sp, #144]
    7204:	f9403be0 	ldr	x0, [sp, #112]
    7208:	f90053e0 	str	x0, [sp, #160]
    720c:	f0ffffc0 	adrp	x0, 2000 <resid_._omp_fn.0+0x460>
    7210:	91329000 	add	x0, x0, #0xca4
    7214:	a90bd7e2 	stp	x2, x21, [sp, #184]
    7218:	52800002 	mov	w2, #0x0                   	// #0
    721c:	a90c97f3 	stp	x19, x5, [sp, #200]
    7220:	291b13e7 	stp	w7, w4, [sp, #216]
    7224:	97ffe95b 	bl	1790 <GOMP_parallel@plt>
    7228:	b00000aa 	adrp	x10, 1c000 <__FRAME_END__+0xfbe8>
    722c:	f9403fe1 	ldr	x1, [sp, #120]
    7230:	f947894a 	ldr	x10, [x10, #3856]
    7234:	b9400140 	ldr	w0, [x10]
    7238:	35000900 	cbnz	w0, 7358 <interp_+0x234>
    723c:	d503201f 	nop
    7240:	b00000b3 	adrp	x19, 1c000 <__FRAME_END__+0xfbe8>
    7244:	f9479260 	ldr	x0, [x19, #3872]
    7248:	b9400000 	ldr	w0, [x0]
    724c:	7100001f 	cmp	w0, #0x0
    7250:	540002cd 	b.le	72a8 <interp_+0x184>
    7254:	b9400387 	ldr	w7, [x28]
    7258:	aa0103e5 	mov	x5, x1
    725c:	f94037e0 	ldr	x0, [sp, #104]
    7260:	510004e7 	sub	w7, w7, #0x1
    7264:	aa1b03e3 	mov	x3, x27
    7268:	aa1a03e2 	mov	x2, x26
    726c:	aa1903e1 	mov	x1, x25
    7270:	d2800106 	mov	x6, #0x8                   	// #8
    7274:	f0000004 	adrp	x4, a000 <print_results_+0x3f0>
    7278:	912aa084 	add	x4, x4, #0xaa8
    727c:	b90093e7 	str	w7, [sp, #144]
    7280:	97ffff68 	bl	7020 <rep_nrm_>
    7284:	f9403be0 	ldr	x0, [sp, #112]
    7288:	f0000004 	adrp	x4, a000 <print_results_+0x3f0>
    728c:	aa1c03e5 	mov	x5, x28
    7290:	912ae084 	add	x4, x4, #0xab8
    7294:	aa1803e3 	mov	x3, x24
    7298:	aa1703e2 	mov	x2, x23
    729c:	aa1603e1 	mov	x1, x22
    72a0:	d2800106 	mov	x6, #0x8                   	// #8
    72a4:	97ffff5f 	bl	7020 <rep_nrm_>
    72a8:	f9479273 	ldr	x19, [x19, #3872]
    72ac:	b9400380 	ldr	w0, [x28]
    72b0:	b9401661 	ldr	w1, [x19, #20]
    72b4:	6b00003f 	cmp	w1, w0
    72b8:	5400082a 	b.ge	73bc <interp_+0x298>  // b.tcont
    72bc:	a94153f3 	ldp	x19, x20, [sp, #16]
    72c0:	a9425bf5 	ldp	x21, x22, [sp, #32]
    72c4:	a94363f7 	ldp	x23, x24, [sp, #48]
    72c8:	a9446bf9 	ldp	x25, x26, [sp, #64]
    72cc:	a94573fb 	ldp	x27, x28, [sp, #80]
    72d0:	a8d07bfd 	ldp	x29, x30, [sp], #256
    72d4:	d65f03c0 	ret
    72d8:	0f000420 	movi	v0.2s, #0x1
    72dc:	0f000442 	movi	v2.2s, #0x2
    72e0:	1e2703e1 	fmov	s1, wzr
    72e4:	1e260007 	fmov	w7, s0
    72e8:	71000c1f 	cmp	w0, #0x3
    72ec:	52800040 	mov	w0, #0x2                   	// #2
    72f0:	1a9f17e4 	cset	w4, eq  // eq = none
    72f4:	1a9f0400 	csinc	w0, w0, wzr, eq  // eq = none
    72f8:	6e0c0440 	mov	v0.s[1], v2.s[0]
    72fc:	910243e1 	add	x1, sp, #0x90
    7300:	f9003fe1 	str	x1, [sp, #120]
    7304:	a90a6ffa 	stp	x26, x27, [sp, #160]
    7308:	4e141c00 	mov	v0.s[2], w0
    730c:	a90c0bf4 	stp	x20, x2, [sp, #192]
    7310:	52800002 	mov	w2, #0x0                   	// #0
    7314:	a94683e3 	ldp	x3, x0, [sp, #104]
    7318:	a90967e3 	stp	x3, x25, [sp, #144]
    731c:	6e1c0420 	mov	v0.s[3], v1.s[0]
    7320:	a90b1be0 	stp	x0, x6, [sp, #176]
    7324:	52800003 	mov	w3, #0x0                   	// #0
    7328:	90ffffe0 	adrp	x0, 3000 <interp_._omp_fn.0+0x35c>
    732c:	910dd000 	add	x0, x0, #0x374
    7330:	a90d4ff5 	stp	x21, x19, [sp, #208]
    7334:	f90073e5 	str	x5, [sp, #224]
    7338:	3c8e83e0 	stur	q0, [sp, #232]
